(dp0
S'info'
p1
(lp2
(dp3
S'label'
p4
(lp5
I01
aI00
aI01
asa(dp6
g4
(lp7
I00
aI01
aI00
asa(dp8
g4
(lp9
I01
aI01
aI00
asa(dp10
g4
(lp11
I01
aI00
aI01
asa(dp12
g4
(lp13
I00
aI00
aI00
asa(dp14
g4
(lp15
I00
aI00
aI00
asa(dp16
g4
(lp17
I00
aI01
aI00
asa(dp18
g4
(lp19
I00
aI00
aI00
asa(dp20
g4
(lp21
I00
aI01
aI00
asa(dp22
g4
(lp23
I00
aI01
aI00
asa(dp24
g4
(lp25
I00
aI01
aI00
asa(dp26
g4
(lp27
I00
aI00
aI00
asa(dp28
g4
(lp29
I00
aI01
aI00
asa(dp30
g4
(lp31
I00
aI00
aI00
asa(dp32
g4
(lp33
I00
aI00
aI01
asa(dp34
g4
(lp35
I00
aI00
aI00
asa(dp36
g4
(lp37
I00
aI00
aI00
asa(dp38
g4
(lp39
I00
aI00
aI00
asa(dp40
g4
(lp41
I00
aI00
aI00
asa(dp42
g4
(lp43
I00
aI01
aI00
asa(dp44
g4
(lp45
I00
aI01
aI00
asa(dp46
g4
(lp47
I01
aI00
aI00
asa(dp48
g4
(lp49
I00
aI00
aI00
asa(dp50
g4
(lp51
I00
aI00
aI00
asa(dp52
g4
(lp53
I00
aI00
aI00
asa(dp54
g4
(lp55
I00
aI01
aI00
asa(dp56
g4
(lp57
I00
aI00
aI00
asa(dp58
g4
(lp59
I00
aI01
aI00
asa(dp60
g4
(lp61
I00
aI00
aI00
asa(dp62
g4
(lp63
I01
aI00
aI01
asa(dp64
g4
(lp65
I00
aI00
aI00
asa(dp66
g4
(lp67
I00
aI00
aI00
asa(dp68
g4
(lp69
I00
aI00
aI00
asa(dp70
g4
(lp71
I00
aI00
aI00
asa(dp72
g4
(lp73
I00
aI01
aI00
asa(dp74
g4
(lp75
I00
aI00
aI00
asa(dp76
g4
(lp77
I00
aI00
aI00
asa(dp78
g4
(lp79
I00
aI00
aI01
asa(dp80
g4
(lp81
I01
aI00
aI00
asa(dp82
g4
(lp83
I00
aI00
aI00
asa(dp84
g4
(lp85
I00
aI00
aI00
asa(dp86
g4
(lp87
I00
aI00
aI00
asa(dp88
g4
(lp89
I00
aI00
aI00
asa(dp90
g4
(lp91
I00
aI00
aI01
asa(dp92
g4
(lp93
I00
aI00
aI01
asa(dp94
g4
(lp95
I00
aI00
aI00
asa(dp96
g4
(lp97
I00
aI00
aI01
asa(dp98
g4
(lp99
I00
aI00
aI00
asa(dp100
g4
(lp101
I01
aI00
aI00
asa(dp102
g4
(lp103
I00
aI00
aI00
asa(dp104
g4
(lp105
I00
aI00
aI00
asa(dp106
g4
(lp107
I00
aI00
aI00
asa(dp108
g4
(lp109
I00
aI00
aI00
asa(dp110
g4
(lp111
I00
aI01
aI00
asa(dp112
g4
(lp113
I00
aI01
aI00
asa(dp114
g4
(lp115
I00
aI00
aI01
asa(dp116
g4
(lp117
I00
aI00
aI00
asa(dp118
g4
(lp119
I00
aI00
aI00
asa(dp120
g4
(lp121
I00
aI00
aI00
asa(dp122
g4
(lp123
I01
aI00
aI01
asa(dp124
g4
(lp125
I00
aI00
aI01
asa(dp126
g4
(lp127
I01
aI00
aI01
asa(dp128
g4
(lp129
I01
aI00
aI01
asa(dp130
g4
(lp131
I00
aI00
aI00
asa(dp132
g4
(lp133
I00
aI00
aI00
asa(dp134
g4
(lp135
I00
aI00
aI00
asa(dp136
g4
(lp137
I00
aI00
aI00
asa(dp138
g4
(lp139
I01
aI00
aI00
asa(dp140
g4
(lp141
I01
aI00
aI01
asa(dp142
g4
(lp143
I00
aI00
aI00
asa(dp144
g4
(lp145
I00
aI00
aI00
asa(dp146
g4
(lp147
I00
aI00
aI00
asa(dp148
g4
(lp149
I00
aI00
aI00
asa(dp150
g4
(lp151
I00
aI00
aI00
asa(dp152
g4
(lp153
I00
aI01
aI00
asa(dp154
g4
(lp155
I00
aI01
aI00
asa(dp156
g4
(lp157
I01
aI00
aI01
asa(dp158
g4
(lp159
I00
aI00
aI01
asa(dp160
g4
(lp161
I00
aI00
aI00
asa(dp162
g4
(lp163
I00
aI00
aI00
asa(dp164
g4
(lp165
I01
aI00
aI00
asa(dp166
g4
(lp167
I00
aI00
aI00
asa(dp168
g4
(lp169
I00
aI00
aI00
asa(dp170
g4
(lp171
I00
aI00
aI00
asa(dp172
g4
(lp173
I00
aI00
aI00
asa(dp174
g4
(lp175
I00
aI00
aI00
asa(dp176
g4
(lp177
I00
aI00
aI00
asa(dp178
g4
(lp179
I00
aI00
aI00
asa(dp180
g4
(lp181
I00
aI00
aI01
asa(dp182
g4
(lp183
I00
aI01
aI00
asa(dp184
g4
(lp185
I00
aI00
aI00
asa(dp186
g4
(lp187
I00
aI00
aI01
asa(dp188
g4
(lp189
I00
aI00
aI00
asa(dp190
g4
(lp191
I00
aI00
aI01
asa(dp192
g4
(lp193
I00
aI01
aI00
asa(dp194
g4
(lp195
I00
aI00
aI00
asa(dp196
g4
(lp197
I00
aI00
aI00
asa(dp198
g4
(lp199
I00
aI00
aI00
asa(dp200
g4
(lp201
I00
aI00
aI00
asa(dp202
g4
(lp203
I00
aI00
aI00
asa(dp204
g4
(lp205
I01
aI00
aI00
asa(dp206
g4
(lp207
I00
aI00
aI00
asa(dp208
g4
(lp209
I00
aI00
aI01
asa(dp210
g4
(lp211
I00
aI01
aI00
asa(dp212
g4
(lp213
I00
aI01
aI00
asa(dp214
g4
(lp215
I00
aI00
aI00
asa(dp216
g4
(lp217
I00
aI01
aI00
asa(dp218
g4
(lp219
I00
aI00
aI00
asa(dp220
g4
(lp221
I00
aI01
aI00
asa(dp222
g4
(lp223
I00
aI00
aI00
asa(dp224
g4
(lp225
I00
aI00
aI00
asa(dp226
g4
(lp227
I00
aI00
aI00
asa(dp228
g4
(lp229
I00
aI00
aI00
asa(dp230
g4
(lp231
I01
aI00
aI00
asa(dp232
g4
(lp233
I00
aI00
aI00
asa(dp234
g4
(lp235
I00
aI00
aI00
asa(dp236
g4
(lp237
I00
aI00
aI00
asa(dp238
g4
(lp239
I00
aI00
aI00
asa(dp240
g4
(lp241
I00
aI00
aI00
asa(dp242
g4
(lp243
I00
aI00
aI00
asa(dp244
g4
(lp245
I00
aI00
aI00
asa(dp246
g4
(lp247
I00
aI01
aI00
asa(dp248
g4
(lp249
I00
aI00
aI00
asa(dp250
g4
(lp251
I01
aI00
aI00
asa(dp252
g4
(lp253
I00
aI00
aI00
asa(dp254
g4
(lp255
I00
aI00
aI00
asa(dp256
g4
(lp257
I00
aI00
aI00
asa(dp258
g4
(lp259
I01
aI00
aI00
asa(dp260
g4
(lp261
I00
aI00
aI00
asa(dp262
g4
(lp263
I00
aI00
aI00
asa(dp264
g4
(lp265
I00
aI00
aI00
asa(dp266
g4
(lp267
I00
aI00
aI00
asa(dp268
g4
(lp269
I00
aI00
aI00
asa(dp270
g4
(lp271
I00
aI00
aI01
asa(dp272
g4
(lp273
I01
aI00
aI00
asa(dp274
g4
(lp275
I00
aI00
aI00
asa(dp276
g4
(lp277
I00
aI00
aI00
asa(dp278
g4
(lp279
I00
aI00
aI00
asa(dp280
g4
(lp281
I00
aI00
aI00
asa(dp282
g4
(lp283
I00
aI00
aI00
asa(dp284
g4
(lp285
I00
aI00
aI00
asa(dp286
g4
(lp287
I01
aI00
aI01
asa(dp288
g4
(lp289
I01
aI00
aI01
asa(dp290
g4
(lp291
I01
aI00
aI01
asa(dp292
g4
(lp293
I00
aI00
aI00
asa(dp294
g4
(lp295
I00
aI00
aI01
asa(dp296
g4
(lp297
I00
aI00
aI00
asa(dp298
g4
(lp299
I00
aI01
aI00
asa(dp300
g4
(lp301
I00
aI00
aI00
asa(dp302
g4
(lp303
I00
aI00
aI00
asa(dp304
g4
(lp305
I00
aI00
aI00
asa(dp306
g4
(lp307
I00
aI00
aI00
asa(dp308
g4
(lp309
I00
aI00
aI00
asa(dp310
g4
(lp311
I00
aI00
aI00
asa(dp312
g4
(lp313
I00
aI00
aI01
asa(dp314
g4
(lp315
I00
aI00
aI01
asa(dp316
g4
(lp317
I00
aI00
aI01
asa(dp318
g4
(lp319
I00
aI00
aI00
asa(dp320
g4
(lp321
I00
aI00
aI00
asa(dp322
g4
(lp323
I00
aI00
aI00
asa(dp324
g4
(lp325
I00
aI00
aI00
asa(dp326
g4
(lp327
I00
aI00
aI00
asa(dp328
g4
(lp329
I00
aI00
aI00
asa(dp330
g4
(lp331
I00
aI00
aI00
asa(dp332
g4
(lp333
I00
aI00
aI00
asa(dp334
g4
(lp335
I01
aI00
aI00
asa(dp336
g4
(lp337
I00
aI00
aI00
asa(dp338
g4
(lp339
I00
aI00
aI00
asa(dp340
g4
(lp341
I00
aI01
aI00
asa(dp342
g4
(lp343
I00
aI00
aI01
asa(dp344
g4
(lp345
I00
aI00
aI00
asa(dp346
g4
(lp347
I00
aI00
aI00
asa(dp348
g4
(lp349
I00
aI01
aI00
asa(dp350
g4
(lp351
I00
aI00
aI00
asa(dp352
g4
(lp353
I00
aI00
aI01
asa(dp354
g4
(lp355
I00
aI00
aI00
asa(dp356
g4
(lp357
I00
aI01
aI00
asa(dp358
g4
(lp359
I00
aI01
aI00
asa(dp360
g4
(lp361
I01
aI00
aI00
asa(dp362
g4
(lp363
I01
aI00
aI00
asa(dp364
g4
(lp365
I00
aI00
aI00
asa(dp366
g4
(lp367
I00
aI00
aI00
asa(dp368
g4
(lp369
I01
aI00
aI00
asa(dp370
g4
(lp371
I01
aI00
aI01
asa(dp372
g4
(lp373
I00
aI00
aI00
asa(dp374
g4
(lp375
I00
aI00
aI00
asa(dp376
g4
(lp377
I00
aI01
aI00
asa(dp378
g4
(lp379
I00
aI00
aI00
asa(dp380
g4
(lp381
I00
aI00
aI00
asa(dp382
g4
(lp383
I00
aI00
aI00
asa(dp384
g4
(lp385
I00
aI00
aI00
asa(dp386
g4
(lp387
I00
aI00
aI00
asa(dp388
g4
(lp389
I00
aI00
aI00
asa(dp390
g4
(lp391
I00
aI00
aI01
asa(dp392
g4
(lp393
I00
aI00
aI00
asa(dp394
g4
(lp395
I01
aI00
aI01
asa(dp396
g4
(lp397
I00
aI00
aI01
asa(dp398
g4
(lp399
I01
aI00
aI00
asa(dp400
g4
(lp401
I00
aI00
aI00
asa(dp402
g4
(lp403
I00
aI00
aI00
asa(dp404
g4
(lp405
I00
aI00
aI01
asa(dp406
g4
(lp407
I00
aI00
aI01
asa(dp408
g4
(lp409
I00
aI00
aI00
asa(dp410
g4
(lp411
I00
aI00
aI00
asa(dp412
g4
(lp413
I00
aI00
aI00
asa(dp414
g4
(lp415
I00
aI00
aI00
asa(dp416
g4
(lp417
I00
aI00
aI00
asa(dp418
g4
(lp419
I00
aI00
aI00
asa(dp420
g4
(lp421
I01
aI00
aI01
asa(dp422
g4
(lp423
I00
aI00
aI00
asa(dp424
g4
(lp425
I00
aI00
aI00
asa(dp426
g4
(lp427
I00
aI00
aI01
asa(dp428
g4
(lp429
I00
aI00
aI01
asa(dp430
g4
(lp431
I00
aI00
aI00
asa(dp432
g4
(lp433
I00
aI00
aI00
asa(dp434
g4
(lp435
I00
aI00
aI00
asa(dp436
g4
(lp437
I00
aI00
aI00
asa(dp438
g4
(lp439
I00
aI00
aI00
asa(dp440
g4
(lp441
I00
aI00
aI00
asa(dp442
g4
(lp443
I00
aI00
aI00
asa(dp444
g4
(lp445
I00
aI00
aI00
asa(dp446
g4
(lp447
I00
aI00
aI00
asa(dp448
g4
(lp449
I00
aI00
aI00
asa(dp450
g4
(lp451
I00
aI00
aI00
asa(dp452
g4
(lp453
I00
aI00
aI00
asa(dp454
g4
(lp455
I00
aI00
aI00
asa(dp456
g4
(lp457
I00
aI00
aI00
asa(dp458
g4
(lp459
I00
aI00
aI00
asa(dp460
g4
(lp461
I01
aI00
aI00
asa(dp462
g4
(lp463
I00
aI00
aI00
asa(dp464
g4
(lp465
I00
aI00
aI00
asa(dp466
g4
(lp467
I00
aI00
aI00
asa(dp468
g4
(lp469
I00
aI01
aI00
asa(dp470
g4
(lp471
I00
aI01
aI00
asa(dp472
g4
(lp473
I00
aI01
aI00
asa(dp474
g4
(lp475
I00
aI00
aI00
asa(dp476
g4
(lp477
I00
aI00
aI00
asa(dp478
g4
(lp479
I00
aI01
aI00
asa(dp480
g4
(lp481
I00
aI00
aI00
asa(dp482
g4
(lp483
I00
aI00
aI00
asa(dp484
g4
(lp485
I00
aI00
aI00
asa(dp486
g4
(lp487
I00
aI01
aI00
asa(dp488
g4
(lp489
I00
aI00
aI01
asa(dp490
g4
(lp491
I00
aI00
aI01
asa(dp492
g4
(lp493
I00
aI00
aI00
asa(dp494
g4
(lp495
I00
aI00
aI00
asa(dp496
g4
(lp497
I00
aI01
aI00
asa(dp498
g4
(lp499
I00
aI00
aI00
asa(dp500
g4
(lp501
I01
aI00
aI00
asa(dp502
g4
(lp503
I00
aI00
aI00
asa(dp504
g4
(lp505
I00
aI00
aI00
asa(dp506
g4
(lp507
I00
aI00
aI00
asa(dp508
g4
(lp509
I00
aI00
aI00
asa(dp510
g4
(lp511
I00
aI00
aI00
asa(dp512
g4
(lp513
I00
aI00
aI00
asa(dp514
g4
(lp515
I00
aI00
aI01
asa(dp516
g4
(lp517
I00
aI00
aI00
asa(dp518
g4
(lp519
I00
aI00
aI00
asa(dp520
g4
(lp521
I00
aI00
aI00
asa(dp522
g4
(lp523
I00
aI00
aI00
asa(dp524
g4
(lp525
I00
aI00
aI00
asa(dp526
g4
(lp527
I00
aI01
aI00
asa(dp528
g4
(lp529
I00
aI00
aI00
asa(dp530
g4
(lp531
I00
aI00
aI00
asa(dp532
g4
(lp533
I00
aI00
aI00
asa(dp534
g4
(lp535
I00
aI01
aI00
asa(dp536
g4
(lp537
I00
aI00
aI00
asa(dp538
g4
(lp539
I00
aI01
aI00
asa(dp540
g4
(lp541
I00
aI00
aI01
asa(dp542
g4
(lp543
I00
aI00
aI00
asa(dp544
g4
(lp545
I00
aI00
aI00
asa(dp546
g4
(lp547
I00
aI00
aI00
asa(dp548
g4
(lp549
I00
aI00
aI00
asa(dp550
g4
(lp551
I00
aI00
aI00
asa(dp552
g4
(lp553
I00
aI01
aI00
asa(dp554
g4
(lp555
I00
aI00
aI00
asa(dp556
g4
(lp557
I00
aI01
aI00
asa(dp558
g4
(lp559
I00
aI00
aI00
asa(dp560
g4
(lp561
I00
aI00
aI00
asa(dp562
g4
(lp563
I00
aI00
aI00
asa(dp564
g4
(lp565
I00
aI00
aI00
asa(dp566
g4
(lp567
I00
aI00
aI00
asa(dp568
g4
(lp569
I00
aI00
aI00
asa(dp570
g4
(lp571
I00
aI00
aI00
asa(dp572
g4
(lp573
I00
aI01
aI00
asa(dp574
g4
(lp575
I00
aI01
aI00
asa(dp576
g4
(lp577
I00
aI00
aI00
asa(dp578
g4
(lp579
I00
aI00
aI00
asa(dp580
g4
(lp581
I00
aI00
aI00
asa(dp582
g4
(lp583
I00
aI00
aI00
asa(dp584
g4
(lp585
I00
aI01
aI00
asa(dp586
g4
(lp587
I00
aI00
aI00
asa(dp588
g4
(lp589
I00
aI00
aI00
asa(dp590
g4
(lp591
I00
aI00
aI00
asa(dp592
g4
(lp593
I00
aI00
aI00
asa(dp594
g4
(lp595
I00
aI00
aI00
asa(dp596
g4
(lp597
I00
aI00
aI00
asa(dp598
g4
(lp599
I00
aI00
aI01
asa(dp600
g4
(lp601
I00
aI00
aI00
asa(dp602
g4
(lp603
I00
aI00
aI00
asa(dp604
g4
(lp605
I00
aI00
aI00
asa(dp606
g4
(lp607
I01
aI00
aI01
asa(dp608
g4
(lp609
I00
aI00
aI01
asa(dp610
g4
(lp611
I00
aI00
aI00
asa(dp612
g4
(lp613
I00
aI00
aI00
asa(dp614
g4
(lp615
I00
aI00
aI00
asa(dp616
g4
(lp617
I00
aI01
aI00
asa(dp618
g4
(lp619
I00
aI00
aI00
asa(dp620
g4
(lp621
I00
aI00
aI00
asa(dp622
g4
(lp623
I00
aI00
aI00
asa(dp624
g4
(lp625
I00
aI00
aI00
asa(dp626
g4
(lp627
I00
aI00
aI00
asa(dp628
g4
(lp629
I00
aI00
aI00
asa(dp630
g4
(lp631
I00
aI00
aI00
asa(dp632
g4
(lp633
I00
aI00
aI00
asa(dp634
g4
(lp635
I01
aI00
aI01
asa(dp636
g4
(lp637
I00
aI01
aI00
asa(dp638
g4
(lp639
I00
aI01
aI00
asa(dp640
g4
(lp641
I01
aI00
aI01
asa(dp642
g4
(lp643
I00
aI00
aI00
asa(dp644
g4
(lp645
I00
aI00
aI00
asa(dp646
g4
(lp647
I00
aI00
aI00
asa(dp648
g4
(lp649
I00
aI00
aI00
asa(dp650
g4
(lp651
I00
aI00
aI00
asa(dp652
g4
(lp653
I00
aI00
aI00
asa(dp654
g4
(lp655
I00
aI01
aI00
asa(dp656
g4
(lp657
I00
aI00
aI00
asa(dp658
g4
(lp659
I00
aI00
aI00
asa(dp660
g4
(lp661
I00
aI00
aI00
asa(dp662
g4
(lp663
I00
aI00
aI00
asa(dp664
g4
(lp665
I00
aI01
aI00
asa(dp666
g4
(lp667
I00
aI00
aI00
asa(dp668
g4
(lp669
I01
aI00
aI00
asa(dp670
g4
(lp671
I01
aI00
aI00
asa(dp672
g4
(lp673
I00
aI00
aI00
asa(dp674
g4
(lp675
I00
aI00
aI01
asa(dp676
g4
(lp677
I00
aI00
aI00
asa(dp678
g4
(lp679
I00
aI00
aI00
asa(dp680
g4
(lp681
I00
aI00
aI00
asa(dp682
g4
(lp683
I00
aI00
aI00
asa(dp684
g4
(lp685
I01
aI00
aI00
asa(dp686
g4
(lp687
I01
aI00
aI00
asa(dp688
g4
(lp689
I00
aI00
aI00
asa(dp690
g4
(lp691
I00
aI00
aI00
asa(dp692
g4
(lp693
I01
aI00
aI00
asa(dp694
g4
(lp695
I01
aI00
aI00
asa(dp696
g4
(lp697
I00
aI00
aI00
asa(dp698
g4
(lp699
I00
aI00
aI00
asa(dp700
g4
(lp701
I00
aI00
aI00
asa(dp702
g4
(lp703
I00
aI00
aI00
asa(dp704
g4
(lp705
I00
aI00
aI00
asa(dp706
g4
(lp707
I01
aI00
aI00
asa(dp708
g4
(lp709
I00
aI00
aI00
asa(dp710
g4
(lp711
I01
aI00
aI00
asa(dp712
g4
(lp713
I00
aI00
aI00
asa(dp714
g4
(lp715
I00
aI00
aI01
asa(dp716
g4
(lp717
I01
aI00
aI00
asa(dp718
g4
(lp719
I00
aI00
aI00
asa(dp720
g4
(lp721
I00
aI00
aI01
asa(dp722
g4
(lp723
I01
aI00
aI00
asa(dp724
g4
(lp725
I01
aI00
aI00
asa(dp726
g4
(lp727
I00
aI00
aI00
asa(dp728
g4
(lp729
I00
aI00
aI00
asa(dp730
g4
(lp731
I00
aI00
aI00
asa(dp732
g4
(lp733
I00
aI00
aI00
asa(dp734
g4
(lp735
I00
aI00
aI00
asa(dp736
g4
(lp737
I00
aI00
aI00
asa(dp738
g4
(lp739
I00
aI00
aI00
asa(dp740
g4
(lp741
I00
aI00
aI00
asa(dp742
g4
(lp743
I00
aI00
aI00
asa(dp744
g4
(lp745
I00
aI00
aI00
asa(dp746
g4
(lp747
I00
aI00
aI00
asa(dp748
g4
(lp749
I00
aI00
aI00
asa(dp750
g4
(lp751
I00
aI00
aI00
asa(dp752
g4
(lp753
I00
aI00
aI00
asa(dp754
g4
(lp755
I00
aI00
aI00
asa(dp756
g4
(lp757
I00
aI01
aI00
asa(dp758
g4
(lp759
I00
aI01
aI00
asa(dp760
g4
(lp761
I00
aI00
aI00
asa(dp762
g4
(lp763
I00
aI00
aI01
asa(dp764
g4
(lp765
I00
aI00
aI00
asa(dp766
g4
(lp767
I00
aI01
aI00
asa(dp768
g4
(lp769
I00
aI00
aI00
asa(dp770
g4
(lp771
I00
aI00
aI00
asa(dp772
g4
(lp773
I00
aI00
aI00
asa(dp774
g4
(lp775
I00
aI00
aI00
asa(dp776
g4
(lp777
I00
aI00
aI00
asa(dp778
g4
(lp779
I00
aI00
aI00
asa(dp780
g4
(lp781
I00
aI00
aI00
asa(dp782
g4
(lp783
I00
aI00
aI01
asa(dp784
g4
(lp785
I01
aI00
aI00
asa(dp786
g4
(lp787
I00
aI00
aI00
asa(dp788
g4
(lp789
I00
aI00
aI00
asa(dp790
g4
(lp791
I00
aI00
aI00
asa(dp792
g4
(lp793
I00
aI00
aI00
asa(dp794
g4
(lp795
I00
aI00
aI01
asa(dp796
g4
(lp797
I00
aI00
aI00
asa(dp798
g4
(lp799
I00
aI00
aI00
asa(dp800
g4
(lp801
I01
aI00
aI00
asa(dp802
g4
(lp803
I00
aI01
aI00
asa(dp804
g4
(lp805
I00
aI00
aI00
asa(dp806
g4
(lp807
I00
aI00
aI00
asa(dp808
g4
(lp809
I01
aI00
aI01
asa(dp810
g4
(lp811
I00
aI00
aI00
asa(dp812
g4
(lp813
I00
aI00
aI00
asa(dp814
g4
(lp815
I00
aI00
aI00
asa(dp816
g4
(lp817
I00
aI00
aI00
asa(dp818
g4
(lp819
I01
aI00
aI00
asa(dp820
g4
(lp821
I00
aI00
aI00
asa(dp822
g4
(lp823
I00
aI00
aI00
asa(dp824
g4
(lp825
I00
aI00
aI00
asa(dp826
g4
(lp827
I00
aI00
aI00
asa(dp828
g4
(lp829
I00
aI00
aI00
asa(dp830
g4
(lp831
I00
aI00
aI00
asa(dp832
g4
(lp833
I00
aI00
aI00
asa(dp834
g4
(lp835
I00
aI00
aI00
asa(dp836
g4
(lp837
I00
aI00
aI00
asa(dp838
g4
(lp839
I01
aI00
aI00
asa(dp840
g4
(lp841
I00
aI00
aI00
asa(dp842
g4
(lp843
I00
aI00
aI00
asa(dp844
g4
(lp845
I00
aI00
aI00
asa(dp846
g4
(lp847
I00
aI00
aI00
asa(dp848
g4
(lp849
I00
aI00
aI00
asa(dp850
g4
(lp851
I00
aI00
aI00
asa(dp852
g4
(lp853
I00
aI00
aI00
asa(dp854
g4
(lp855
I00
aI01
aI00
asa(dp856
g4
(lp857
I00
aI00
aI00
asa(dp858
g4
(lp859
I00
aI00
aI00
asa(dp860
g4
(lp861
I00
aI00
aI00
asa(dp862
g4
(lp863
I01
aI00
aI01
asa(dp864
g4
(lp865
I00
aI01
aI00
asa(dp866
g4
(lp867
I00
aI00
aI00
asa(dp868
g4
(lp869
I00
aI00
aI00
asa(dp870
g4
(lp871
I01
aI00
aI00
asa(dp872
g4
(lp873
I00
aI00
aI00
asa(dp874
g4
(lp875
I00
aI01
aI00
asa(dp876
g4
(lp877
I00
aI00
aI00
asa(dp878
g4
(lp879
I00
aI00
aI00
asa(dp880
g4
(lp881
I00
aI00
aI00
asa(dp882
g4
(lp883
I01
aI00
aI00
asa(dp884
g4
(lp885
I00
aI00
aI01
asa(dp886
g4
(lp887
I00
aI00
aI01
asa(dp888
g4
(lp889
I00
aI00
aI00
asa(dp890
g4
(lp891
I00
aI00
aI01
asa(dp892
g4
(lp893
I00
aI00
aI00
asa(dp894
g4
(lp895
I00
aI00
aI00
asa(dp896
g4
(lp897
I00
aI00
aI00
asa(dp898
g4
(lp899
I01
aI00
aI00
asa(dp900
g4
(lp901
I00
aI00
aI00
asa(dp902
g4
(lp903
I00
aI00
aI00
asa(dp904
g4
(lp905
I00
aI00
aI00
asa(dp906
g4
(lp907
I00
aI00
aI00
asa(dp908
g4
(lp909
I00
aI01
aI00
asa(dp910
g4
(lp911
I00
aI00
aI00
asa(dp912
g4
(lp913
I00
aI01
aI00
asa(dp914
g4
(lp915
I00
aI00
aI00
asa(dp916
g4
(lp917
I01
aI00
aI00
asa(dp918
g4
(lp919
I00
aI00
aI00
asa(dp920
g4
(lp921
I01
aI00
aI00
asa(dp922
g4
(lp923
I01
aI00
aI01
asa(dp924
g4
(lp925
I00
aI00
aI00
asa(dp926
g4
(lp927
I00
aI00
aI00
asa(dp928
g4
(lp929
I00
aI00
aI01
asa(dp930
g4
(lp931
I00
aI00
aI01
asa(dp932
g4
(lp933
I00
aI01
aI00
asa(dp934
g4
(lp935
I00
aI00
aI00
asa(dp936
g4
(lp937
I00
aI00
aI00
asa(dp938
g4
(lp939
I00
aI00
aI00
asa(dp940
g4
(lp941
I00
aI00
aI01
asa(dp942
g4
(lp943
I00
aI00
aI00
asa(dp944
g4
(lp945
I00
aI00
aI00
asa(dp946
g4
(lp947
I00
aI00
aI00
asa(dp948
g4
(lp949
I00
aI00
aI00
asa(dp950
g4
(lp951
I00
aI00
aI00
asa(dp952
g4
(lp953
I00
aI00
aI01
asa(dp954
g4
(lp955
I00
aI00
aI00
asa(dp956
g4
(lp957
I00
aI00
aI00
asa(dp958
g4
(lp959
I00
aI00
aI00
asa(dp960
g4
(lp961
I00
aI00
aI00
asa(dp962
g4
(lp963
I00
aI00
aI00
asa(dp964
g4
(lp965
I00
aI00
aI00
asa(dp966
g4
(lp967
I00
aI00
aI00
asa(dp968
g4
(lp969
I00
aI00
aI00
asa(dp970
g4
(lp971
I00
aI00
aI01
asa(dp972
g4
(lp973
I01
aI00
aI00
asa(dp974
g4
(lp975
I00
aI01
aI00
asa(dp976
g4
(lp977
I00
aI00
aI00
asa(dp978
g4
(lp979
I00
aI01
aI00
asa(dp980
g4
(lp981
I00
aI00
aI00
asa(dp982
g4
(lp983
I00
aI00
aI00
asa(dp984
g4
(lp985
I00
aI00
aI00
asa(dp986
g4
(lp987
I00
aI00
aI00
asa(dp988
g4
(lp989
I01
aI00
aI01
asa(dp990
g4
(lp991
I00
aI00
aI00
asa(dp992
g4
(lp993
I00
aI00
aI00
asa(dp994
g4
(lp995
I00
aI00
aI00
asa(dp996
g4
(lp997
I00
aI01
aI00
asa(dp998
g4
(lp999
I00
aI00
aI00
asa(dp1000
g4
(lp1001
I00
aI00
aI00
asa(dp1002
g4
(lp1003
I00
aI00
aI00
asa(dp1004
g4
(lp1005
I00
aI00
aI00
asa(dp1006
g4
(lp1007
I00
aI00
aI00
asa(dp1008
g4
(lp1009
I00
aI00
aI00
asa(dp1010
g4
(lp1011
I00
aI00
aI00
asa(dp1012
g4
(lp1013
I01
aI00
aI01
asa(dp1014
g4
(lp1015
I00
aI00
aI00
asa(dp1016
g4
(lp1017
I00
aI00
aI00
asa(dp1018
g4
(lp1019
I00
aI00
aI00
asa(dp1020
g4
(lp1021
I00
aI00
aI00
asa(dp1022
g4
(lp1023
I00
aI01
aI00
asa(dp1024
g4
(lp1025
I00
aI01
aI00
asa(dp1026
g4
(lp1027
I00
aI00
aI01
asa(dp1028
g4
(lp1029
I00
aI00
aI00
asa(dp1030
g4
(lp1031
I00
aI00
aI00
asa(dp1032
g4
(lp1033
I00
aI00
aI00
asa(dp1034
g4
(lp1035
I00
aI01
aI00
asa(dp1036
g4
(lp1037
I01
aI00
aI01
asa(dp1038
g4
(lp1039
I01
aI00
aI00
asa(dp1040
g4
(lp1041
I00
aI01
aI00
asa(dp1042
g4
(lp1043
I00
aI00
aI00
asa(dp1044
g4
(lp1045
I01
aI00
aI00
asa(dp1046
g4
(lp1047
I00
aI00
aI00
asa(dp1048
g4
(lp1049
I00
aI00
aI00
asa(dp1050
g4
(lp1051
I00
aI00
aI01
asa(dp1052
g4
(lp1053
I00
aI00
aI01
asa(dp1054
g4
(lp1055
I00
aI00
aI00
asa(dp1056
g4
(lp1057
I00
aI00
aI00
asa(dp1058
g4
(lp1059
I00
aI01
aI00
asa(dp1060
g4
(lp1061
I00
aI00
aI01
asa(dp1062
g4
(lp1063
I01
aI00
aI00
asa(dp1064
g4
(lp1065
I00
aI00
aI00
asa(dp1066
g4
(lp1067
I00
aI00
aI00
asa(dp1068
g4
(lp1069
I00
aI00
aI00
asa(dp1070
g4
(lp1071
I00
aI00
aI00
asa(dp1072
g4
(lp1073
I00
aI00
aI00
asa(dp1074
g4
(lp1075
I00
aI00
aI00
asa(dp1076
g4
(lp1077
I00
aI00
aI00
asa(dp1078
g4
(lp1079
I00
aI00
aI00
asa(dp1080
g4
(lp1081
I00
aI00
aI01
asa(dp1082
g4
(lp1083
I00
aI00
aI00
asa(dp1084
g4
(lp1085
I01
aI00
aI00
asa(dp1086
g4
(lp1087
I01
aI00
aI00
asa(dp1088
g4
(lp1089
I01
aI00
aI00
asa(dp1090
g4
(lp1091
I00
aI00
aI00
asa(dp1092
g4
(lp1093
I00
aI00
aI00
asa(dp1094
g4
(lp1095
I00
aI00
aI00
asa(dp1096
g4
(lp1097
I00
aI00
aI00
asa(dp1098
g4
(lp1099
I00
aI00
aI00
asa(dp1100
g4
(lp1101
I00
aI00
aI00
asa(dp1102
g4
(lp1103
I00
aI00
aI00
asa(dp1104
g4
(lp1105
I00
aI01
aI00
asa(dp1106
g4
(lp1107
I00
aI00
aI00
asa(dp1108
g4
(lp1109
I00
aI00
aI00
asa(dp1110
g4
(lp1111
I00
aI00
aI00
asa(dp1112
g4
(lp1113
I00
aI00
aI00
asa(dp1114
g4
(lp1115
I00
aI00
aI00
asa(dp1116
g4
(lp1117
I00
aI00
aI01
asa(dp1118
g4
(lp1119
I00
aI00
aI00
asa(dp1120
g4
(lp1121
I00
aI00
aI00
asa(dp1122
g4
(lp1123
I00
aI00
aI00
asa(dp1124
g4
(lp1125
I00
aI00
aI00
asa(dp1126
g4
(lp1127
I00
aI00
aI01
asa(dp1128
g4
(lp1129
I00
aI00
aI01
asa(dp1130
g4
(lp1131
I01
aI00
aI00
asa(dp1132
g4
(lp1133
I00
aI00
aI00
asa(dp1134
g4
(lp1135
I00
aI00
aI00
asa(dp1136
g4
(lp1137
I00
aI00
aI01
asa(dp1138
g4
(lp1139
I00
aI00
aI01
asa(dp1140
g4
(lp1141
I00
aI00
aI01
asa(dp1142
g4
(lp1143
I00
aI00
aI00
asa(dp1144
g4
(lp1145
I00
aI00
aI00
asa(dp1146
g4
(lp1147
I00
aI00
aI00
asa(dp1148
g4
(lp1149
I00
aI00
aI00
asa(dp1150
g4
(lp1151
I00
aI00
aI00
asa(dp1152
g4
(lp1153
I00
aI00
aI00
asa(dp1154
g4
(lp1155
I00
aI01
aI00
asa(dp1156
g4
(lp1157
I00
aI00
aI00
asa(dp1158
g4
(lp1159
I00
aI00
aI00
asa(dp1160
g4
(lp1161
I01
aI00
aI00
asa(dp1162
g4
(lp1163
I00
aI01
aI00
asa(dp1164
g4
(lp1165
I00
aI00
aI01
asa(dp1166
g4
(lp1167
I00
aI01
aI00
asa(dp1168
g4
(lp1169
I00
aI00
aI00
asa(dp1170
g4
(lp1171
I00
aI00
aI00
asa(dp1172
g4
(lp1173
I00
aI00
aI00
asa(dp1174
g4
(lp1175
I00
aI01
aI00
asa(dp1176
g4
(lp1177
I00
aI00
aI01
asa(dp1178
g4
(lp1179
I00
aI00
aI00
asa(dp1180
g4
(lp1181
I00
aI00
aI00
asa(dp1182
g4
(lp1183
I00
aI00
aI00
asa(dp1184
g4
(lp1185
I00
aI00
aI00
asa(dp1186
g4
(lp1187
I00
aI00
aI00
asa(dp1188
g4
(lp1189
I00
aI00
aI00
asa(dp1190
g4
(lp1191
I00
aI00
aI00
asa(dp1192
g4
(lp1193
I00
aI00
aI00
asa(dp1194
g4
(lp1195
I00
aI00
aI00
asa(dp1196
g4
(lp1197
I00
aI00
aI00
asa(dp1198
g4
(lp1199
I00
aI00
aI00
asa(dp1200
g4
(lp1201
I00
aI00
aI00
asa(dp1202
g4
(lp1203
I00
aI00
aI00
asa(dp1204
g4
(lp1205
I00
aI00
aI00
asa(dp1206
g4
(lp1207
I01
aI00
aI00
asa(dp1208
g4
(lp1209
I00
aI01
aI00
asa(dp1210
g4
(lp1211
I00
aI00
aI00
asa(dp1212
g4
(lp1213
I00
aI00
aI00
asa(dp1214
g4
(lp1215
I01
aI00
aI00
asa(dp1216
g4
(lp1217
I00
aI00
aI00
asa(dp1218
g4
(lp1219
I00
aI00
aI00
asa(dp1220
g4
(lp1221
I00
aI01
aI00
asa(dp1222
g4
(lp1223
I00
aI00
aI00
asa(dp1224
g4
(lp1225
I00
aI01
aI00
asa(dp1226
g4
(lp1227
I00
aI00
aI00
asa(dp1228
g4
(lp1229
I01
aI00
aI00
asa(dp1230
g4
(lp1231
I00
aI00
aI00
asa(dp1232
g4
(lp1233
I00
aI00
aI00
asa(dp1234
g4
(lp1235
I00
aI00
aI00
asa(dp1236
g4
(lp1237
I00
aI01
aI00
asa(dp1238
g4
(lp1239
I01
aI00
aI00
asa(dp1240
g4
(lp1241
I00
aI00
aI00
asa(dp1242
g4
(lp1243
I00
aI00
aI00
asa(dp1244
g4
(lp1245
I00
aI00
aI01
asa(dp1246
g4
(lp1247
I00
aI00
aI01
asa(dp1248
g4
(lp1249
I00
aI00
aI00
asa(dp1250
g4
(lp1251
I00
aI00
aI00
asa(dp1252
g4
(lp1253
I00
aI00
aI00
asa(dp1254
g4
(lp1255
I00
aI00
aI00
asa(dp1256
g4
(lp1257
I00
aI00
aI00
asa(dp1258
g4
(lp1259
I00
aI01
aI00
asa(dp1260
g4
(lp1261
I00
aI00
aI00
asa(dp1262
g4
(lp1263
I00
aI00
aI00
asa(dp1264
g4
(lp1265
I01
aI00
aI00
asa(dp1266
g4
(lp1267
I00
aI00
aI00
asa(dp1268
g4
(lp1269
I00
aI00
aI01
asa(dp1270
g4
(lp1271
I00
aI01
aI00
asa(dp1272
g4
(lp1273
I00
aI00
aI00
asa(dp1274
g4
(lp1275
I01
aI00
aI00
asa(dp1276
g4
(lp1277
I00
aI00
aI01
asa(dp1278
g4
(lp1279
I00
aI00
aI01
asa(dp1280
g4
(lp1281
I00
aI00
aI00
asa(dp1282
g4
(lp1283
I01
aI00
aI00
asa(dp1284
g4
(lp1285
I00
aI00
aI00
asa(dp1286
g4
(lp1287
I00
aI00
aI00
asa(dp1288
g4
(lp1289
I00
aI00
aI00
asa(dp1290
g4
(lp1291
I00
aI01
aI00
asa(dp1292
g4
(lp1293
I00
aI00
aI00
asa(dp1294
g4
(lp1295
I01
aI00
aI00
asa(dp1296
g4
(lp1297
I00
aI00
aI00
asa(dp1298
g4
(lp1299
I01
aI00
aI00
asa(dp1300
g4
(lp1301
I01
aI00
aI00
asa(dp1302
g4
(lp1303
I00
aI01
aI00
asa(dp1304
g4
(lp1305
I00
aI00
aI00
asa(dp1306
g4
(lp1307
I00
aI00
aI00
asa(dp1308
g4
(lp1309
I00
aI00
aI00
asa(dp1310
g4
(lp1311
I00
aI00
aI00
asa(dp1312
g4
(lp1313
I00
aI00
aI00
asa(dp1314
g4
(lp1315
I00
aI00
aI00
asa(dp1316
g4
(lp1317
I00
aI00
aI00
asa(dp1318
g4
(lp1319
I00
aI00
aI00
asa(dp1320
g4
(lp1321
I01
aI00
aI00
asa(dp1322
g4
(lp1323
I00
aI00
aI00
asa(dp1324
g4
(lp1325
I00
aI00
aI00
asa(dp1326
g4
(lp1327
I00
aI00
aI00
asa(dp1328
g4
(lp1329
I00
aI00
aI00
asa(dp1330
g4
(lp1331
I00
aI01
aI00
asa(dp1332
g4
(lp1333
I00
aI00
aI00
asa(dp1334
g4
(lp1335
I00
aI00
aI00
asa(dp1336
g4
(lp1337
I00
aI00
aI00
asa(dp1338
g4
(lp1339
I00
aI00
aI00
asa(dp1340
g4
(lp1341
I00
aI00
aI00
asa(dp1342
g4
(lp1343
I00
aI00
aI00
asa(dp1344
g4
(lp1345
I01
aI00
aI01
asa(dp1346
g4
(lp1347
I01
aI00
aI01
asa(dp1348
g4
(lp1349
I00
aI00
aI00
asa(dp1350
g4
(lp1351
I00
aI00
aI00
asa(dp1352
g4
(lp1353
I00
aI00
aI00
asa(dp1354
g4
(lp1355
I00
aI00
aI00
asa(dp1356
g4
(lp1357
I00
aI00
aI00
asa(dp1358
g4
(lp1359
I00
aI00
aI00
asa(dp1360
g4
(lp1361
I00
aI00
aI00
asa(dp1362
g4
(lp1363
I00
aI00
aI00
asa(dp1364
g4
(lp1365
I00
aI00
aI00
asa(dp1366
g4
(lp1367
I00
aI00
aI00
asa(dp1368
g4
(lp1369
I00
aI01
aI00
asa(dp1370
g4
(lp1371
I00
aI00
aI00
asa(dp1372
g4
(lp1373
I00
aI01
aI00
asa(dp1374
g4
(lp1375
I01
aI00
aI00
asa(dp1376
g4
(lp1377
I00
aI00
aI00
asa(dp1378
g4
(lp1379
I00
aI00
aI00
asa(dp1380
g4
(lp1381
I00
aI01
aI00
asa(dp1382
g4
(lp1383
I01
aI00
aI00
asa(dp1384
g4
(lp1385
I01
aI00
aI00
asa(dp1386
g4
(lp1387
I00
aI00
aI00
asa(dp1388
g4
(lp1389
I00
aI00
aI01
asa(dp1390
g4
(lp1391
I00
aI00
aI00
asa(dp1392
g4
(lp1393
I00
aI00
aI01
asa(dp1394
g4
(lp1395
I00
aI00
aI00
asa(dp1396
g4
(lp1397
I00
aI00
aI00
asa(dp1398
g4
(lp1399
I00
aI00
aI00
asa(dp1400
g4
(lp1401
I00
aI01
aI00
asa(dp1402
g4
(lp1403
I01
aI00
aI00
asa(dp1404
g4
(lp1405
I00
aI00
aI00
asa(dp1406
g4
(lp1407
I00
aI00
aI00
asa(dp1408
g4
(lp1409
I00
aI00
aI00
asa(dp1410
g4
(lp1411
I00
aI00
aI00
asa(dp1412
g4
(lp1413
I00
aI00
aI00
asa(dp1414
g4
(lp1415
I00
aI00
aI00
asa(dp1416
g4
(lp1417
I00
aI00
aI00
asa(dp1418
g4
(lp1419
I00
aI00
aI00
asa(dp1420
g4
(lp1421
I00
aI00
aI00
asa(dp1422
g4
(lp1423
I00
aI00
aI00
asa(dp1424
g4
(lp1425
I00
aI01
aI00
asa(dp1426
g4
(lp1427
I00
aI01
aI00
asa(dp1428
g4
(lp1429
I00
aI00
aI00
asa(dp1430
g4
(lp1431
I00
aI00
aI00
asa(dp1432
g4
(lp1433
I00
aI00
aI00
asa(dp1434
g4
(lp1435
I00
aI00
aI00
asa(dp1436
g4
(lp1437
I00
aI00
aI00
asa(dp1438
g4
(lp1439
I00
aI00
aI00
asa(dp1440
g4
(lp1441
I00
aI00
aI00
asa(dp1442
g4
(lp1443
I00
aI00
aI00
asa(dp1444
g4
(lp1445
I01
aI00
aI00
asa(dp1446
g4
(lp1447
I00
aI00
aI00
asa(dp1448
g4
(lp1449
I00
aI00
aI00
asa(dp1450
g4
(lp1451
I01
aI00
aI01
asa(dp1452
g4
(lp1453
I00
aI00
aI00
asa(dp1454
g4
(lp1455
I01
aI00
aI01
asa(dp1456
g4
(lp1457
I00
aI01
aI00
asa(dp1458
g4
(lp1459
I00
aI00
aI00
asa(dp1460
g4
(lp1461
I00
aI00
aI00
asa(dp1462
g4
(lp1463
I00
aI00
aI00
asa(dp1464
g4
(lp1465
I00
aI00
aI00
asa(dp1466
g4
(lp1467
I00
aI00
aI00
asa(dp1468
g4
(lp1469
I00
aI00
aI00
asa(dp1470
g4
(lp1471
I01
aI00
aI01
asa(dp1472
g4
(lp1473
I00
aI00
aI01
asa(dp1474
g4
(lp1475
I00
aI00
aI00
asa(dp1476
g4
(lp1477
I00
aI00
aI00
asa(dp1478
g4
(lp1479
I00
aI00
aI00
asa(dp1480
g4
(lp1481
I00
aI01
aI00
asa(dp1482
g4
(lp1483
I00
aI00
aI00
asa(dp1484
g4
(lp1485
I00
aI00
aI00
asa(dp1486
g4
(lp1487
I01
aI00
aI00
asa(dp1488
g4
(lp1489
I00
aI00
aI00
asa(dp1490
g4
(lp1491
I00
aI00
aI00
asa(dp1492
g4
(lp1493
I00
aI00
aI01
asa(dp1494
g4
(lp1495
I00
aI01
aI00
asa(dp1496
g4
(lp1497
I00
aI00
aI00
asa(dp1498
g4
(lp1499
I00
aI00
aI00
asa(dp1500
g4
(lp1501
I00
aI00
aI00
asa(dp1502
g4
(lp1503
I00
aI01
aI00
asa(dp1504
g4
(lp1505
I01
aI00
aI00
asa(dp1506
g4
(lp1507
I00
aI00
aI00
asa(dp1508
g4
(lp1509
I00
aI00
aI00
asa(dp1510
g4
(lp1511
I00
aI00
aI00
asa(dp1512
g4
(lp1513
I00
aI00
aI00
asa(dp1514
g4
(lp1515
I01
aI00
aI00
asa(dp1516
g4
(lp1517
I01
aI00
aI00
asa(dp1518
g4
(lp1519
I01
aI00
aI00
asa(dp1520
g4
(lp1521
I00
aI00
aI00
asa(dp1522
g4
(lp1523
I01
aI00
aI01
asa(dp1524
g4
(lp1525
I01
aI00
aI00
asa(dp1526
g4
(lp1527
I00
aI00
aI00
asa(dp1528
g4
(lp1529
I01
aI00
aI00
asa(dp1530
g4
(lp1531
I00
aI01
aI00
asa(dp1532
g4
(lp1533
I00
aI00
aI00
asa(dp1534
g4
(lp1535
I00
aI00
aI00
asa(dp1536
g4
(lp1537
I00
aI00
aI00
asa(dp1538
g4
(lp1539
I00
aI00
aI00
asa(dp1540
g4
(lp1541
I01
aI00
aI00
asa(dp1542
g4
(lp1543
I00
aI00
aI01
asa(dp1544
g4
(lp1545
I00
aI00
aI00
asa(dp1546
g4
(lp1547
I00
aI00
aI00
asa(dp1548
g4
(lp1549
I00
aI00
aI00
asa(dp1550
g4
(lp1551
I00
aI01
aI00
asa(dp1552
g4
(lp1553
I00
aI00
aI00
asa(dp1554
g4
(lp1555
I00
aI01
aI00
asa(dp1556
g4
(lp1557
I00
aI00
aI00
asa(dp1558
g4
(lp1559
I00
aI00
aI00
asa(dp1560
g4
(lp1561
I00
aI00
aI00
asa(dp1562
g4
(lp1563
I00
aI00
aI00
asa(dp1564
g4
(lp1565
I00
aI00
aI00
asa(dp1566
g4
(lp1567
I00
aI00
aI00
asa(dp1568
g4
(lp1569
I00
aI00
aI00
asa(dp1570
g4
(lp1571
I00
aI01
aI00
asa(dp1572
g4
(lp1573
I01
aI00
aI00
asa(dp1574
g4
(lp1575
I01
aI00
aI00
asa(dp1576
g4
(lp1577
I00
aI00
aI00
asa(dp1578
g4
(lp1579
I00
aI00
aI00
asa(dp1580
g4
(lp1581
I01
aI00
aI00
asa(dp1582
g4
(lp1583
I00
aI00
aI01
asa(dp1584
g4
(lp1585
I01
aI00
aI01
asa(dp1586
g4
(lp1587
I00
aI00
aI00
asa(dp1588
g4
(lp1589
I00
aI00
aI00
asa(dp1590
g4
(lp1591
I00
aI00
aI00
asa(dp1592
g4
(lp1593
I00
aI00
aI00
asa(dp1594
g4
(lp1595
I00
aI00
aI00
asa(dp1596
g4
(lp1597
I00
aI00
aI00
asa(dp1598
g4
(lp1599
I00
aI00
aI00
asa(dp1600
g4
(lp1601
I00
aI00
aI00
asa(dp1602
g4
(lp1603
I00
aI00
aI01
asa(dp1604
g4
(lp1605
I00
aI00
aI00
asa(dp1606
g4
(lp1607
I00
aI00
aI00
asa(dp1608
g4
(lp1609
I00
aI00
aI00
asa(dp1610
g4
(lp1611
I00
aI00
aI00
asa(dp1612
g4
(lp1613
I00
aI00
aI00
asa(dp1614
g4
(lp1615
I00
aI00
aI00
asa(dp1616
g4
(lp1617
I00
aI00
aI00
asa(dp1618
g4
(lp1619
I00
aI00
aI00
asa(dp1620
g4
(lp1621
I00
aI00
aI00
asa(dp1622
g4
(lp1623
I00
aI00
aI00
asa(dp1624
g4
(lp1625
I00
aI00
aI00
asa(dp1626
g4
(lp1627
I00
aI00
aI00
asa(dp1628
g4
(lp1629
I01
aI00
aI00
asa(dp1630
g4
(lp1631
I00
aI00
aI00
asa(dp1632
g4
(lp1633
I00
aI00
aI00
asa(dp1634
g4
(lp1635
I00
aI00
aI00
asa(dp1636
g4
(lp1637
I00
aI00
aI00
asa(dp1638
g4
(lp1639
I00
aI00
aI00
asa(dp1640
g4
(lp1641
I00
aI00
aI00
asa(dp1642
g4
(lp1643
I00
aI00
aI01
asa(dp1644
g4
(lp1645
I00
aI00
aI01
asa(dp1646
g4
(lp1647
I00
aI01
aI00
asa(dp1648
g4
(lp1649
I00
aI00
aI00
asa(dp1650
g4
(lp1651
I00
aI00
aI00
asa(dp1652
g4
(lp1653
I00
aI00
aI00
asa(dp1654
g4
(lp1655
I00
aI00
aI00
asa(dp1656
g4
(lp1657
I00
aI00
aI01
asa(dp1658
g4
(lp1659
I00
aI00
aI00
asa(dp1660
g4
(lp1661
I00
aI00
aI00
asa(dp1662
g4
(lp1663
I00
aI00
aI00
asa(dp1664
g4
(lp1665
I00
aI00
aI00
asa(dp1666
g4
(lp1667
I00
aI00
aI00
asa(dp1668
g4
(lp1669
I00
aI00
aI00
asa(dp1670
g4
(lp1671
I00
aI00
aI00
asa(dp1672
g4
(lp1673
I00
aI00
aI00
asa(dp1674
g4
(lp1675
I00
aI00
aI00
asa(dp1676
g4
(lp1677
I00
aI00
aI00
asa(dp1678
g4
(lp1679
I00
aI00
aI00
asa(dp1680
g4
(lp1681
I01
aI00
aI00
asa(dp1682
g4
(lp1683
I00
aI00
aI00
asa(dp1684
g4
(lp1685
I00
aI00
aI00
asa(dp1686
g4
(lp1687
I00
aI00
aI00
asa(dp1688
g4
(lp1689
I00
aI00
aI00
asa(dp1690
g4
(lp1691
I01
aI00
aI00
asa(dp1692
g4
(lp1693
I01
aI00
aI00
asa(dp1694
g4
(lp1695
I00
aI00
aI01
asa(dp1696
g4
(lp1697
I00
aI00
aI01
asa(dp1698
g4
(lp1699
I01
aI00
aI00
asa(dp1700
g4
(lp1701
I00
aI00
aI00
asa(dp1702
g4
(lp1703
I00
aI00
aI00
asa(dp1704
g4
(lp1705
I00
aI00
aI00
asa(dp1706
g4
(lp1707
I01
aI00
aI00
asa(dp1708
g4
(lp1709
I00
aI00
aI00
asa(dp1710
g4
(lp1711
I00
aI00
aI00
asa(dp1712
g4
(lp1713
I00
aI01
aI00
asa(dp1714
g4
(lp1715
I00
aI00
aI00
asa(dp1716
g4
(lp1717
I00
aI01
aI00
asa(dp1718
g4
(lp1719
I00
aI00
aI00
asa(dp1720
g4
(lp1721
I00
aI00
aI00
asa(dp1722
g4
(lp1723
I00
aI01
aI00
asa(dp1724
g4
(lp1725
I00
aI00
aI00
asa(dp1726
g4
(lp1727
I00
aI00
aI00
asa(dp1728
g4
(lp1729
I00
aI00
aI00
asa(dp1730
g4
(lp1731
I00
aI00
aI00
asa(dp1732
g4
(lp1733
I00
aI00
aI00
asa(dp1734
g4
(lp1735
I00
aI00
aI00
asa(dp1736
g4
(lp1737
I01
aI00
aI00
asa(dp1738
g4
(lp1739
I00
aI01
aI00
asa(dp1740
g4
(lp1741
I00
aI01
aI00
asa(dp1742
g4
(lp1743
I00
aI01
aI00
asa(dp1744
g4
(lp1745
I00
aI00
aI00
asa(dp1746
g4
(lp1747
I00
aI01
aI00
asa(dp1748
g4
(lp1749
I00
aI00
aI00
asa(dp1750
g4
(lp1751
I00
aI00
aI00
asa(dp1752
g4
(lp1753
I00
aI00
aI00
asa(dp1754
g4
(lp1755
I00
aI00
aI00
asa(dp1756
g4
(lp1757
I00
aI00
aI00
asa(dp1758
g4
(lp1759
I00
aI00
aI00
asa(dp1760
g4
(lp1761
I00
aI01
aI00
asa(dp1762
g4
(lp1763
I00
aI00
aI00
asa(dp1764
g4
(lp1765
I00
aI00
aI00
asa(dp1766
g4
(lp1767
I00
aI00
aI00
asa(dp1768
g4
(lp1769
I00
aI01
aI00
asa(dp1770
g4
(lp1771
I00
aI01
aI00
asa(dp1772
g4
(lp1773
I00
aI00
aI00
asa(dp1774
g4
(lp1775
I00
aI01
aI00
asa(dp1776
g4
(lp1777
I00
aI00
aI00
asa(dp1778
g4
(lp1779
I00
aI00
aI00
asa(dp1780
g4
(lp1781
I00
aI00
aI00
asa(dp1782
g4
(lp1783
I00
aI00
aI00
asa(dp1784
g4
(lp1785
I00
aI00
aI00
asa(dp1786
g4
(lp1787
I00
aI00
aI00
asa(dp1788
g4
(lp1789
I00
aI00
aI00
asa(dp1790
g4
(lp1791
I00
aI00
aI01
asa(dp1792
g4
(lp1793
I00
aI00
aI00
asa(dp1794
g4
(lp1795
I00
aI00
aI00
asa(dp1796
g4
(lp1797
I00
aI00
aI00
asa(dp1798
g4
(lp1799
I00
aI00
aI00
asa(dp1800
g4
(lp1801
I00
aI00
aI00
asa(dp1802
g4
(lp1803
I00
aI00
aI00
asa(dp1804
g4
(lp1805
I00
aI00
aI01
asa(dp1806
g4
(lp1807
I00
aI01
aI00
asa(dp1808
g4
(lp1809
I00
aI00
aI00
asa(dp1810
g4
(lp1811
I00
aI01
aI00
asa(dp1812
g4
(lp1813
I00
aI01
aI00
asa(dp1814
g4
(lp1815
I00
aI01
aI00
asa(dp1816
g4
(lp1817
I00
aI00
aI00
asa(dp1818
g4
(lp1819
I00
aI00
aI00
asa(dp1820
g4
(lp1821
I00
aI00
aI00
asa(dp1822
g4
(lp1823
I00
aI00
aI00
asa(dp1824
g4
(lp1825
I00
aI00
aI01
asa(dp1826
g4
(lp1827
I00
aI00
aI01
asa(dp1828
g4
(lp1829
I00
aI00
aI00
asa(dp1830
g4
(lp1831
I00
aI01
aI00
asa(dp1832
g4
(lp1833
I00
aI01
aI00
asa(dp1834
g4
(lp1835
I00
aI00
aI01
asa(dp1836
g4
(lp1837
I00
aI01
aI00
asa(dp1838
g4
(lp1839
I00
aI00
aI00
asa(dp1840
g4
(lp1841
I00
aI00
aI00
asa(dp1842
g4
(lp1843
I00
aI00
aI00
asa(dp1844
g4
(lp1845
I00
aI01
aI00
asa(dp1846
g4
(lp1847
I00
aI00
aI00
asa(dp1848
g4
(lp1849
I00
aI01
aI00
asa(dp1850
g4
(lp1851
I01
aI00
aI01
asa(dp1852
g4
(lp1853
I00
aI00
aI00
asa(dp1854
g4
(lp1855
I00
aI00
aI01
asa(dp1856
g4
(lp1857
I00
aI00
aI00
asa(dp1858
g4
(lp1859
I00
aI00
aI00
asa(dp1860
g4
(lp1861
I00
aI00
aI00
asa(dp1862
g4
(lp1863
I00
aI00
aI00
asa(dp1864
g4
(lp1865
I00
aI00
aI00
asa(dp1866
g4
(lp1867
I00
aI00
aI00
asa(dp1868
g4
(lp1869
I01
aI00
aI00
asa(dp1870
g4
(lp1871
I00
aI00
aI00
asa(dp1872
g4
(lp1873
I00
aI00
aI00
asa(dp1874
g4
(lp1875
I00
aI00
aI00
asa(dp1876
g4
(lp1877
I00
aI00
aI00
asa(dp1878
g4
(lp1879
I00
aI00
aI00
asa(dp1880
g4
(lp1881
I00
aI00
aI00
asa(dp1882
g4
(lp1883
I00
aI00
aI00
asa(dp1884
g4
(lp1885
I00
aI00
aI00
asa(dp1886
g4
(lp1887
I00
aI00
aI00
asa(dp1888
g4
(lp1889
I00
aI00
aI00
asa(dp1890
g4
(lp1891
I00
aI00
aI00
asa(dp1892
g4
(lp1893
I00
aI00
aI00
asa(dp1894
g4
(lp1895
I00
aI00
aI00
asa(dp1896
g4
(lp1897
I00
aI00
aI00
asa(dp1898
g4
(lp1899
I00
aI00
aI00
asa(dp1900
g4
(lp1901
I00
aI00
aI00
asa(dp1902
g4
(lp1903
I00
aI00
aI00
asa(dp1904
g4
(lp1905
I00
aI00
aI00
asa(dp1906
g4
(lp1907
I00
aI00
aI00
asa(dp1908
g4
(lp1909
I00
aI00
aI00
asa(dp1910
g4
(lp1911
I00
aI00
aI00
asa(dp1912
g4
(lp1913
I00
aI00
aI01
asa(dp1914
g4
(lp1915
I00
aI01
aI00
asa(dp1916
g4
(lp1917
I00
aI01
aI00
asa(dp1918
g4
(lp1919
I00
aI00
aI01
asa(dp1920
g4
(lp1921
I00
aI01
aI00
asa(dp1922
g4
(lp1923
I00
aI00
aI00
asa(dp1924
g4
(lp1925
I00
aI01
aI00
asa(dp1926
g4
(lp1927
I00
aI00
aI00
asa(dp1928
g4
(lp1929
I00
aI00
aI00
asa(dp1930
g4
(lp1931
I00
aI00
aI00
asa(dp1932
g4
(lp1933
I00
aI00
aI00
asa(dp1934
g4
(lp1935
I00
aI01
aI00
asa(dp1936
g4
(lp1937
I00
aI00
aI01
asa(dp1938
g4
(lp1939
I00
aI00
aI00
asa(dp1940
g4
(lp1941
I00
aI00
aI00
asa(dp1942
g4
(lp1943
I00
aI01
aI00
asa(dp1944
g4
(lp1945
I00
aI00
aI01
asa(dp1946
g4
(lp1947
I00
aI00
aI00
asa(dp1948
g4
(lp1949
I00
aI00
aI00
asa(dp1950
g4
(lp1951
I00
aI01
aI00
asa(dp1952
g4
(lp1953
I00
aI01
aI00
asa(dp1954
g4
(lp1955
I00
aI01
aI00
asa(dp1956
g4
(lp1957
I00
aI01
aI00
asa(dp1958
g4
(lp1959
I00
aI00
aI00
asa(dp1960
g4
(lp1961
I00
aI00
aI00
asa(dp1962
g4
(lp1963
I00
aI00
aI00
asa(dp1964
g4
(lp1965
I00
aI00
aI00
asa(dp1966
g4
(lp1967
I00
aI00
aI00
asa(dp1968
g4
(lp1969
I00
aI00
aI00
asa(dp1970
g4
(lp1971
I00
aI00
aI00
asa(dp1972
g4
(lp1973
I01
aI00
aI00
asa(dp1974
g4
(lp1975
I00
aI00
aI01
asa(dp1976
g4
(lp1977
I00
aI01
aI00
asa(dp1978
g4
(lp1979
I00
aI00
aI00
asa(dp1980
g4
(lp1981
I00
aI00
aI00
asa(dp1982
g4
(lp1983
I00
aI00
aI00
asa(dp1984
g4
(lp1985
I00
aI00
aI00
asa(dp1986
g4
(lp1987
I00
aI00
aI00
asa(dp1988
g4
(lp1989
I00
aI00
aI00
asa(dp1990
g4
(lp1991
I00
aI00
aI00
asa(dp1992
g4
(lp1993
I00
aI00
aI00
asa(dp1994
g4
(lp1995
I00
aI00
aI00
asa(dp1996
g4
(lp1997
I00
aI01
aI00
asa(dp1998
g4
(lp1999
I00
aI00
aI00
asa(dp2000
g4
(lp2001
I00
aI00
aI00
asa(dp2002
g4
(lp2003
I00
aI00
aI00
asa(dp2004
g4
(lp2005
I00
aI00
aI01
asa(dp2006
g4
(lp2007
I00
aI01
aI00
asa(dp2008
g4
(lp2009
I00
aI00
aI00
asa(dp2010
g4
(lp2011
I00
aI00
aI01
asa(dp2012
g4
(lp2013
I00
aI01
aI00
asa(dp2014
g4
(lp2015
I00
aI00
aI00
asa(dp2016
g4
(lp2017
I00
aI00
aI00
asa(dp2018
g4
(lp2019
I00
aI00
aI00
asa(dp2020
g4
(lp2021
I01
aI00
aI01
asa(dp2022
g4
(lp2023
I00
aI00
aI00
asa(dp2024
g4
(lp2025
I00
aI00
aI00
asa(dp2026
g4
(lp2027
I00
aI00
aI01
asa(dp2028
g4
(lp2029
I00
aI00
aI00
asa(dp2030
g4
(lp2031
I00
aI00
aI00
asa(dp2032
g4
(lp2033
I00
aI00
aI00
asa(dp2034
g4
(lp2035
I00
aI01
aI00
asa(dp2036
g4
(lp2037
I00
aI00
aI00
asa(dp2038
g4
(lp2039
I00
aI01
aI00
asa(dp2040
g4
(lp2041
I00
aI00
aI00
asa(dp2042
g4
(lp2043
I00
aI00
aI00
asa(dp2044
g4
(lp2045
I00
aI00
aI00
asa(dp2046
g4
(lp2047
I00
aI00
aI00
asa(dp2048
g4
(lp2049
I00
aI00
aI00
asa(dp2050
g4
(lp2051
I00
aI00
aI00
asa(dp2052
g4
(lp2053
I00
aI00
aI00
asa(dp2054
g4
(lp2055
I00
aI00
aI01
asa(dp2056
g4
(lp2057
I00
aI00
aI00
asa(dp2058
g4
(lp2059
I00
aI00
aI00
asa(dp2060
g4
(lp2061
I00
aI00
aI00
asa(dp2062
g4
(lp2063
I00
aI01
aI00
asa(dp2064
g4
(lp2065
I00
aI00
aI01
asa(dp2066
g4
(lp2067
I00
aI00
aI01
asa(dp2068
g4
(lp2069
I00
aI00
aI00
asa(dp2070
g4
(lp2071
I00
aI00
aI00
asa(dp2072
g4
(lp2073
I00
aI00
aI00
asa(dp2074
g4
(lp2075
I00
aI00
aI00
asa(dp2076
g4
(lp2077
I00
aI00
aI00
asa(dp2078
g4
(lp2079
I00
aI00
aI00
asa(dp2080
g4
(lp2081
I00
aI00
aI00
asa(dp2082
g4
(lp2083
I00
aI00
aI00
asa(dp2084
g4
(lp2085
I00
aI00
aI00
asa(dp2086
g4
(lp2087
I00
aI00
aI00
asa(dp2088
g4
(lp2089
I00
aI00
aI00
asa(dp2090
g4
(lp2091
I00
aI00
aI00
asa(dp2092
g4
(lp2093
I00
aI00
aI00
asa(dp2094
g4
(lp2095
I00
aI00
aI00
asa(dp2096
g4
(lp2097
I00
aI00
aI00
asa(dp2098
g4
(lp2099
I00
aI00
aI00
asa(dp2100
g4
(lp2101
I00
aI00
aI00
asa(dp2102
g4
(lp2103
I00
aI00
aI00
asa(dp2104
g4
(lp2105
I00
aI00
aI00
asa(dp2106
g4
(lp2107
I00
aI00
aI00
asa(dp2108
g4
(lp2109
I00
aI00
aI00
asa(dp2110
g4
(lp2111
I00
aI00
aI00
asa(dp2112
g4
(lp2113
I00
aI00
aI00
asa(dp2114
g4
(lp2115
I01
aI00
aI01
asa(dp2116
g4
(lp2117
I00
aI00
aI00
asa(dp2118
g4
(lp2119
I00
aI00
aI00
asa(dp2120
g4
(lp2121
I00
aI00
aI00
asa(dp2122
g4
(lp2123
I00
aI00
aI01
asa(dp2124
g4
(lp2125
I00
aI00
aI00
asa(dp2126
g4
(lp2127
I00
aI00
aI00
asa(dp2128
g4
(lp2129
I00
aI00
aI00
asa(dp2130
g4
(lp2131
I00
aI00
aI00
asa(dp2132
g4
(lp2133
I00
aI00
aI00
asa(dp2134
g4
(lp2135
I00
aI00
aI00
asa(dp2136
g4
(lp2137
I00
aI00
aI01
asa(dp2138
g4
(lp2139
I01
aI00
aI00
asa(dp2140
g4
(lp2141
I00
aI00
aI00
asa(dp2142
g4
(lp2143
I00
aI00
aI00
asa(dp2144
g4
(lp2145
I00
aI00
aI00
asa(dp2146
g4
(lp2147
I00
aI00
aI00
asa(dp2148
g4
(lp2149
I00
aI00
aI00
asa(dp2150
g4
(lp2151
I00
aI00
aI00
asa(dp2152
g4
(lp2153
I00
aI00
aI00
asa(dp2154
g4
(lp2155
I00
aI00
aI00
asa(dp2156
g4
(lp2157
I00
aI01
aI00
asa(dp2158
g4
(lp2159
I00
aI00
aI00
asa(dp2160
g4
(lp2161
I00
aI00
aI00
asa(dp2162
g4
(lp2163
I00
aI00
aI00
asa(dp2164
g4
(lp2165
I00
aI00
aI00
asa(dp2166
g4
(lp2167
I01
aI00
aI00
asa(dp2168
g4
(lp2169
I00
aI00
aI00
asa(dp2170
g4
(lp2171
I00
aI00
aI00
asa(dp2172
g4
(lp2173
I00
aI00
aI00
asa(dp2174
g4
(lp2175
I00
aI00
aI00
asa(dp2176
g4
(lp2177
I00
aI01
aI00
asa(dp2178
g4
(lp2179
I00
aI00
aI00
asa(dp2180
g4
(lp2181
I00
aI00
aI00
asa(dp2182
g4
(lp2183
I00
aI01
aI00
asa(dp2184
g4
(lp2185
I00
aI00
aI01
asa(dp2186
g4
(lp2187
I00
aI00
aI00
asa(dp2188
g4
(lp2189
I00
aI00
aI00
asa(dp2190
g4
(lp2191
I01
aI00
aI00
asa(dp2192
g4
(lp2193
I00
aI00
aI00
asa(dp2194
g4
(lp2195
I00
aI00
aI00
asa(dp2196
g4
(lp2197
I01
aI00
aI01
asa(dp2198
g4
(lp2199
I00
aI00
aI00
asa(dp2200
g4
(lp2201
I00
aI00
aI00
asa(dp2202
g4
(lp2203
I00
aI01
aI00
asa(dp2204
g4
(lp2205
I00
aI00
aI00
asa(dp2206
g4
(lp2207
I00
aI00
aI00
asa(dp2208
g4
(lp2209
I00
aI00
aI00
asa(dp2210
g4
(lp2211
I00
aI00
aI00
asa(dp2212
g4
(lp2213
I00
aI00
aI00
asa(dp2214
g4
(lp2215
I00
aI00
aI00
asa(dp2216
g4
(lp2217
I00
aI00
aI00
asa(dp2218
g4
(lp2219
I00
aI00
aI00
asa(dp2220
g4
(lp2221
I00
aI00
aI00
asa(dp2222
g4
(lp2223
I00
aI01
aI00
asa(dp2224
g4
(lp2225
I00
aI00
aI00
asa(dp2226
g4
(lp2227
I00
aI01
aI00
asa(dp2228
g4
(lp2229
I00
aI00
aI00
asa(dp2230
g4
(lp2231
I00
aI00
aI01
asa(dp2232
g4
(lp2233
I00
aI00
aI00
asa(dp2234
g4
(lp2235
I00
aI00
aI00
asa(dp2236
g4
(lp2237
I00
aI00
aI00
asa(dp2238
g4
(lp2239
I00
aI00
aI00
asa(dp2240
g4
(lp2241
I00
aI00
aI00
asa(dp2242
g4
(lp2243
I00
aI00
aI00
asa(dp2244
g4
(lp2245
I00
aI01
aI00
asa(dp2246
g4
(lp2247
I00
aI00
aI01
asa(dp2248
g4
(lp2249
I00
aI00
aI00
asa(dp2250
g4
(lp2251
I00
aI00
aI01
asa(dp2252
g4
(lp2253
I00
aI00
aI01
asa(dp2254
g4
(lp2255
I00
aI01
aI00
asa(dp2256
g4
(lp2257
I00
aI00
aI00
asa(dp2258
g4
(lp2259
I00
aI01
aI00
asa(dp2260
g4
(lp2261
I00
aI00
aI01
asa(dp2262
g4
(lp2263
I00
aI00
aI00
asa(dp2264
g4
(lp2265
I00
aI00
aI00
asa(dp2266
g4
(lp2267
I01
aI00
aI00
asa(dp2268
g4
(lp2269
I00
aI00
aI00
asa(dp2270
g4
(lp2271
I00
aI00
aI00
asa(dp2272
g4
(lp2273
I00
aI00
aI00
asa(dp2274
g4
(lp2275
I00
aI00
aI00
asa(dp2276
g4
(lp2277
I00
aI00
aI00
asa(dp2278
g4
(lp2279
I00
aI00
aI00
asa(dp2280
g4
(lp2281
I00
aI00
aI01
asa(dp2282
g4
(lp2283
I00
aI00
aI00
asa(dp2284
g4
(lp2285
I00
aI01
aI00
asa(dp2286
g4
(lp2287
I00
aI00
aI00
asa(dp2288
g4
(lp2289
I00
aI00
aI00
asa(dp2290
g4
(lp2291
I00
aI00
aI00
asa(dp2292
g4
(lp2293
I00
aI00
aI00
asa(dp2294
g4
(lp2295
I00
aI00
aI00
asa(dp2296
g4
(lp2297
I00
aI00
aI00
asa(dp2298
g4
(lp2299
I00
aI00
aI00
asa(dp2300
g4
(lp2301
I00
aI00
aI00
asa(dp2302
g4
(lp2303
I00
aI00
aI00
asa(dp2304
g4
(lp2305
I00
aI00
aI00
asa(dp2306
g4
(lp2307
I00
aI00
aI01
asa(dp2308
g4
(lp2309
I00
aI01
aI00
asa(dp2310
g4
(lp2311
I00
aI00
aI01
asa(dp2312
g4
(lp2313
I00
aI00
aI00
asa(dp2314
g4
(lp2315
I00
aI00
aI00
asa(dp2316
g4
(lp2317
I00
aI00
aI00
asa(dp2318
g4
(lp2319
I00
aI00
aI00
asa(dp2320
g4
(lp2321
I00
aI00
aI00
asa(dp2322
g4
(lp2323
I00
aI00
aI00
asa(dp2324
g4
(lp2325
I00
aI00
aI00
asa(dp2326
g4
(lp2327
I00
aI00
aI00
asa(dp2328
g4
(lp2329
I00
aI00
aI00
asa(dp2330
g4
(lp2331
I00
aI00
aI00
asa(dp2332
g4
(lp2333
I01
aI00
aI01
asa(dp2334
g4
(lp2335
I01
aI00
aI00
asa(dp2336
g4
(lp2337
I00
aI00
aI01
asa(dp2338
g4
(lp2339
I00
aI00
aI00
asa(dp2340
g4
(lp2341
I00
aI00
aI00
asa(dp2342
g4
(lp2343
I00
aI00
aI00
asa(dp2344
g4
(lp2345
I00
aI00
aI00
asa(dp2346
g4
(lp2347
I00
aI00
aI00
asa(dp2348
g4
(lp2349
I00
aI00
aI00
asa(dp2350
g4
(lp2351
I00
aI00
aI00
asa(dp2352
g4
(lp2353
I00
aI00
aI00
asa(dp2354
g4
(lp2355
I00
aI00
aI00
asa(dp2356
g4
(lp2357
I00
aI00
aI00
asa(dp2358
g4
(lp2359
I00
aI00
aI01
asa(dp2360
g4
(lp2361
I00
aI00
aI00
asa(dp2362
g4
(lp2363
I00
aI00
aI00
asa(dp2364
g4
(lp2365
I00
aI00
aI00
asa(dp2366
g4
(lp2367
I00
aI00
aI00
asa(dp2368
g4
(lp2369
I00
aI00
aI00
asa(dp2370
g4
(lp2371
I00
aI01
aI00
asa(dp2372
g4
(lp2373
I00
aI00
aI00
asa(dp2374
g4
(lp2375
I00
aI00
aI00
asa(dp2376
g4
(lp2377
I00
aI00
aI00
asa(dp2378
g4
(lp2379
I00
aI00
aI00
asa(dp2380
g4
(lp2381
I00
aI00
aI00
asa(dp2382
g4
(lp2383
I00
aI00
aI00
asa(dp2384
g4
(lp2385
I00
aI00
aI00
asa(dp2386
g4
(lp2387
I00
aI00
aI00
asa(dp2388
g4
(lp2389
I00
aI01
aI00
asa(dp2390
g4
(lp2391
I00
aI00
aI00
asa(dp2392
g4
(lp2393
I00
aI00
aI00
asa(dp2394
g4
(lp2395
I00
aI01
aI00
asa(dp2396
g4
(lp2397
I00
aI00
aI00
asa(dp2398
g4
(lp2399
I00
aI00
aI00
asa(dp2400
g4
(lp2401
I00
aI00
aI00
asa(dp2402
g4
(lp2403
I00
aI00
aI00
asa(dp2404
g4
(lp2405
I01
aI00
aI00
asa(dp2406
g4
(lp2407
I00
aI00
aI00
asa(dp2408
g4
(lp2409
I00
aI00
aI00
asa(dp2410
g4
(lp2411
I00
aI00
aI00
asa(dp2412
g4
(lp2413
I00
aI01
aI00
asa(dp2414
g4
(lp2415
I00
aI00
aI00
asa(dp2416
g4
(lp2417
I00
aI00
aI00
asa(dp2418
g4
(lp2419
I00
aI00
aI00
asa(dp2420
g4
(lp2421
I00
aI00
aI00
asa(dp2422
g4
(lp2423
I00
aI00
aI01
asa(dp2424
g4
(lp2425
I00
aI00
aI00
asa(dp2426
g4
(lp2427
I00
aI00
aI00
asa(dp2428
g4
(lp2429
I00
aI00
aI00
asa(dp2430
g4
(lp2431
I00
aI00
aI00
asa(dp2432
g4
(lp2433
I00
aI00
aI00
asa(dp2434
g4
(lp2435
I00
aI01
aI00
asa(dp2436
g4
(lp2437
I00
aI00
aI00
asa(dp2438
g4
(lp2439
I00
aI00
aI00
asa(dp2440
g4
(lp2441
I00
aI00
aI00
asa(dp2442
g4
(lp2443
I00
aI00
aI00
asa(dp2444
g4
(lp2445
I00
aI00
aI00
asa(dp2446
g4
(lp2447
I00
aI00
aI00
asa(dp2448
g4
(lp2449
I00
aI00
aI00
asa(dp2450
g4
(lp2451
I00
aI00
aI00
asa(dp2452
g4
(lp2453
I00
aI00
aI00
asa(dp2454
g4
(lp2455
I00
aI00
aI00
asa(dp2456
g4
(lp2457
I00
aI00
aI00
asa(dp2458
g4
(lp2459
I00
aI00
aI00
asa(dp2460
g4
(lp2461
I00
aI00
aI00
asa(dp2462
g4
(lp2463
I00
aI00
aI00
asa(dp2464
g4
(lp2465
I00
aI00
aI00
asa(dp2466
g4
(lp2467
I00
aI00
aI00
asa(dp2468
g4
(lp2469
I00
aI00
aI00
asa(dp2470
g4
(lp2471
I00
aI00
aI00
asa(dp2472
g4
(lp2473
I00
aI00
aI00
asa(dp2474
g4
(lp2475
I00
aI00
aI00
asa(dp2476
g4
(lp2477
I00
aI00
aI01
asa(dp2478
g4
(lp2479
I00
aI00
aI00
asa(dp2480
g4
(lp2481
I00
aI00
aI00
asa(dp2482
g4
(lp2483
I00
aI00
aI00
asa(dp2484
g4
(lp2485
I00
aI00
aI00
asa(dp2486
g4
(lp2487
I00
aI00
aI01
asa(dp2488
g4
(lp2489
I00
aI00
aI01
asa(dp2490
g4
(lp2491
I00
aI00
aI00
asa(dp2492
g4
(lp2493
I00
aI00
aI00
asa(dp2494
g4
(lp2495
I00
aI00
aI00
asa(dp2496
g4
(lp2497
I00
aI00
aI01
asa(dp2498
g4
(lp2499
I00
aI00
aI00
asa(dp2500
g4
(lp2501
I00
aI00
aI00
asa(dp2502
g4
(lp2503
I00
aI00
aI00
asasS'texts'
p2504
(lp2505
S'Mortar assault leaves at least 18 dead'
p2506
aS'Goal delight for Sheva'
p2507
aS'Nigeria hostage feared dead is freed'
p2508
aS'Bombers kill shoppers'
p2509
aS'Vegetables, not fruit, slow brain decline'
p2510
aS'PM: Havana deal a good experiment'
p2511
aS'Kate is marrying Doherty'
p2512
aS'NASA revisiting life on Mars question'
p2513
aS'Happy birthday, iPod'
p2514
aS'Alonso would be happy to retire with three titles'
p2515
aS"Madonna's New Tot 'Happy at Home' in London"
p2516
aS"Nicole Kidman asks dad to help stop husband's drinking"
p2517
aS'United Finds Good Connection in Win'
p2518
aS"'Runway': Making Good Without Making Nice"
p2519
aS"We were 'arrogant and stupid' over Iraq, says US diplomat"
p2520
aS'Bad reasons to be good'
p2521
aS"Madonna's new baby's daddy didn't realize adoption was `for good'"
p2522
aS"Women in their 60s 'are perfectly good mothers'"
p2523
aS"We're a pretty kind 'bully'"
p2524
aS"Moderate drinking reduces men's heart attack risk"
p2525
aS'Tom Cruise and Katie Holmes set wedding date'
p2526
aS'Kidnapped AP photographer freed in Gaza'
p2527
aS'Bush Insists Troops Stay in Iraq, Predicts Midterm Victory'
p2528
aS'Hurricane Paul Weakens To Tropical Storm'
p2529
aS'UK announces immigration restrictions'
p2530
aS'Three found alive from missing Russian ship -report'
p2531
aS'Poison Pill to Swallow: Hawks Hurting After Loss to Vikes'
p2532
aS'Injured Marathon Winner Leaves Hospital'
p2533
aS'Hacker unlocks Apple music download protection'
p2534
aS'Spanish journalist seized in Gaza'
p2535
aS'Sudan urges UN to replace its special envoy'
p2536
aS'Resolution approved for international games'
p2537
aS'Pair of Satellites Will Document Sun in 3-D'
p2538
aS'Martian Life Could Have Evaded Detection by Viking Landers'
p2539
aS'The sweet tune of an anniversary'
p2540
aS'Did Viking Probes Miss Life on Mars?'
p2541
aS'Diplomat acknowledges US arrogance in Iraq'
p2542
aS'More Human Remains Found at Ground Zero'
p2543
aS'How to Prevent Iraq From Getting Even Worse'
p2544
aS'Tensions as Hungary marks uprising'
p2545
aS'Stanford study warns of Internet addiction'
p2546
aS'No evidence of ice reserves on the moon'
p2547
aS'A Picture and A Thousand Words'
p2548
aS'Parachutist dies at bridge-jump festival'
p2549
aS'US Troops Killed In October In Iraq'
p2550
aS'Chefs not counting calories, study finds'
p2551
aS'Deaths linked to flu vaccine'
p2552
aS'Perfect lives lose their focus'
p2553
aS'Bread-Heavy Diet Linked to Kidney Cancer'
p2554
aS'Beating poverty in a small way'
p2555
aS'Israel insists on Lebanon overflights'
p2556
aS'Britain to restrict immigrants from new EU members'
p2557
aS'Confusion Reigns In the Expanding Digital World'
p2558
aS'Game on! London exhibition celebrates the history of video games'
p2559
aS'Making peace from victory over poverty'
p2560
aS'Marine killed in fighting west of Baghdad'
p2561
aS'Scientists create first cloaking device'
p2562
aS'Amateur rocket scientists reach for space'
p2563
aS'Confusion Reigns In the Expanding Digital World'
p2564
aS'Deaths linked to flu vaccine'
p2565
aS'Israel admits using phosphorous shells in Lebanon'
p2566
aS'4th person dies after receiving flu shot'
p2567
aS'Police and shoppers targeted in growing Iraq violence'
p2568
aS'Scientists discover miracle in the depths'
p2569
aS"Doctors Seeing Patients Who Think They're Internet Addicted"
p2570
aS'China launches two satellites into orbit'
p2571
aS'Vegetables May Boost Brain Power in Older Adults'
p2572
aS'Hurricane Paul nears Category 3 status'
p2573
aS'Russian ship sinks, 18-member crew missing'
p2574
aS"Iran's president urges higher birth rate"
p2575
aS'Apple set for massive market gains'
p2576
aS'Tumor Types May Explain Survival Rates for Cancer'
p2577
aS'Routine mission turns into hunt for missing comrade'
p2578
aS'Bad weather slows S.Korean search for Russian ship'
p2579
aS'Tailors and housewives busy as Muslims celebrate Eid'
p2580
aS'Active peace brings the promise of development'
p2581
aS'Abbas condemns Israeli massacre in northern Gaza Strip'
p2582
aS'Bangladesh ferry sinks, 15 dead'
p2583
aS'Bucs find a new kick in life'
p2584
aS'Google to unveil election mashup'
p2585
aS'Police warn of child exploitation online'
p2586
aS'Breast Cancer Awareness is Important'
p2587
aS'Hungary police tackle violent protestors'
p2588
aS'Three drivers had reason to be proud in Brazil'
p2589
aS'Celebrities Protest Malibu Gas Facility'
p2590
aS'Lebo: A life lived on the edge'
p2591
aS"Presto! He's Batman, then magic man"
p2592
aS'Heavy use of mobile phones can make men infertile, scientists say'
p2593
aS'Russian ship sinks in Pacific'
p2594
aS'China Successfully Launches Two Satellites'
p2595
aS'Prestige has magic touch'
p2596
aS'Lies, damned lies, and divorce'
p2597
aS'Manning inspires Giants to victory in Dallas'
p2598
aS'Riot warning for France suburbs'
p2599
aS'Full recovery expected for marathon winner'
p2600
aS'Sony apologises for global battery recall'
p2601
aS'Questions on credit card safety'
p2602
aS'Budapest calm after night of violent protests'
p2603
aS'Vegetables May Boost Brain Power in Older Adults'
p2604
aS'Report criticises US press freedoms'
p2605
aS'French suburb riots could resume'
p2606
aS'Photographer kidnapping condemned'
p2607
aS'Photographer kidnapped in Gaza'
p2608
aS'Baseball: Rogers enjoys his muddied streak'
p2609
aS'Cultural revolutionary, the iPod is five'
p2610
aS'Life on Mars? Maybe We Missed It'
p2611
aS'Three found alive from missing Russian ship -report'
p2612
aS"Moderate drinking reduces men's heart attack risk"
p2613
aS'The sweet tune of an anniversary'
p2614
aS'Inconvenient truths'
p2615
aS'Dating difficult for Harry Potter'
p2616
aS'Students lose their rite of passage'
p2617
aS'Putin vows to tackle illegal immigration'
p2618
aS"Ottawa must redefine 'terror'"
p2619
aS'Britain to Limit Workers from Romania, Bulgaria'
p2620
aS'Top General Optimistic on Iraq'
p2621
aS'Kim Osorio Wins Sexual Harrassment Suit Against The Source'
p2622
aS'Silly and substantial'
p2623
aS'Official laughs for Borat'
p2624
aS'Speaker Hastert testifies before panel probing sex scandal'
p2625
aS'On Educating Sexes Separately'
p2626
aS'Tom Cruise and Katie Holmes set wedding date'
p2627
aS'Martian Life Could Have Evaded Detection by Viking Landers'
p2628
aS'Ukraine gas deal marred by fears'
p2629
aS'Marathon victory comes at heavy cost'
p2630
aS'College tuition continues climbing'
p2631
aS'German paper shows soldiers desecrating skull'
p2632
aS'War is close, Ethiopia tells Somali rebels'
p2633
aS'Advantage Cardinals with Suppan in Game 4'
p2634
aS'NASA spacecraft to measure Sun'
p2635
aS'Sony Hates Europeans, Will Prevent The Importing of PS3'
p2636
aS'Flu Vaccine Appears Safe for Young Children'
p2637
aS'Google To Launch Yet Another Search Tool'
p2638
aS"Tropical Storm Paul's Outer Bands Hit Mexico's Baja California"
p2639
aS'Israeli Bomblets Plague Lebanon'
p2640
aS'New Indonesia Calamity, a Mud Bath, Is Man-Made'
p2641
aS'U.S. Weighs Sanctions Against North Korea'
p2642
aS'Rice, in Baghdad, Insists That Iraqis Are '
p2643
aS'Senator Says U.S. Should Rethink Iraq Strategy'
p2644
aS'German Chief Forges Accord on Financing Health Care'
p2645
aS'Turkish Writers Say Efforts to Stifle Speech May Backfire'
p2646
aS'Kurdish Lawmaker Killed in an Attack in Baghdad'
p2647
aS'Anti-U.S. Attack Videos Spread on the Internet'
p2648
aS'Women Face Greatest Threat of Violence at Home, Study Finds'
p2649
aS'Appeal by Chinese Researcher for Times May Soon Be Heard'
p2650
aS'Brazil Air Force Cites Faults and Confusion in Fatal Crash'
p2651
aS'A Mix of Oil and Environmentalism'
p2652
aS'Immigrants and French Reach Deal in Standoff'
p2653
aS'Genghis Khan Beer? Mongolia Grimaces'
p2654
aS'Dead Bachelors in Remote China Still Find Wives'
p2655
aS'Managua Journal: Hold the Mojito and Margarita, Nicaragua Has el Macu'
p2656
aS'Paris Journal: Smoking No Longer Tres Chic in France'
p2657
aS"An Old Letter Casts Doubts on Iran's Goal for Uranium"
p2658
aS'U.S. Warns North Koreans About Nuclear Test'
p2659
aS'Global Sludge Ends in Tragedy for Ivory Coast'
p2660
aS'Equipment on Plane in Brazil Collision May Have Been Faulty'
p2661
aS'New Indonesia Calamity, a Mud Bath, Is Man-Made'
p2662
aS'Iraqi Journalists Add Laws to List of Dangers'
p2663
aS'U.N. Force Is Treading Lightly on Lebanese Soil'
p2664
aS'Cleric Said to Lose Reins Over Part of Iraqi Militia'
p2665
aS"Citing Spy Agencies' Study, Democrats Seek Iraq Changes"
p2666
aS'Opera Canceled Over a Depiction of Muhammad'
p2667
aS"Military Officials Add to U.S. Criticism of Iraq's Government"
p2668
aS'Teacher in Hiding After Attack on Islam Stirs Threats'
p2669
aS'Combative Bush Releases Parts of Terror Study'
p2670
aS'Growing Unarmed Battalion in Qaeda Army Is Using Internet to Get the Message Out'
p2671
aS'Iraqi Linked to Sunni Bloc Is Held in Plot, Military Says'
p2672
aS'Seduced by Snacks? No, Not You'
p2673
aS'Friends for Life: An Emerging Biology of Emotional Healing'
p2674
aS"Alzheimer's Drugs Offer No Help, Study Finds"
p2675
aS'Across Europe, Worries on Islam Spread to Center'
p2676
aS'Cooking Defines Sephardic Jews at Sukkot'
p2677
aS'Fitness: Bodies in Motion, Clean and Sober'
p2678
aS"In God's Name: Religion-Based Tax Breaks: Housing to Paychecks to Books"
p2679
aS'Yankee Dies in Plane Crash, Official Says'
p2680
aS'An Elephant Crackup?'
p2681
aS'With YouTube, Grad Student Hits Jackpot Again'
p2682
aS'Dow flirts with record highs again'
p2683
aS'Tropical Storm Isaac forms in Atlantic'
p2684
aS'New Iraq terror tape calls for abducting foreigners'
p2685
aS"'Deep regret' for ex-HP exec"
p2686
aS"'Opportunity' knocks on geologist's dream crater"
p2687
aS'Squirrel jumps boy in park; rabies suspected'
p2688
aS'Girl left comatose after dental visit dies'
p2689
aS'Porn star candidate campaigns on campus'
p2690
aS'School ends football season after 0-4 start'
p2691
aS'Charlie Sheen to become highest-paid sitcom star'
p2692
aS"Jon Stewart mocks benefits of CNN's I"
p2693
aS'Ashton Kutcher tells secret to Ryan Seacrest'
p2694
aS'Nails-on-chalkboard study earns Ig'
p2695
aS"Gunman 'fine' before shooting"
p2696
aS"Marijuana may stave off Alzheimer's"
p2697
aS'Kentucky seeks alcohol huffing ban'
p2698
aS'Toddler died from tainted spinach'
p2699
aS"Judge dismisses Karr's porn case"
p2700
aS'10 die in 22-hour Kashmir standoff'
p2701
aS'Slain Amish girls laid to rest'
p2702
aS'5,000 flee plant fire'
p2703
aS'Cher auction fetches double pre-sale estimates'
p2704
aS"Stars scuffle on 'Grey's Anatomy'"
p2705
aS'Probe under way in Yankee crash'
p2706
aS'Amish schoolhouse torn down'
p2707
aS"Warner will not run in '08"
p2708
aS'Reid land deal under scrutiny'
p2709
aS'Flooding washes out road to Valdez, Alaska'
p2710
aS'Briton admits U.S. bomb plot role'
p2711
aS'Commentary: Minutemen have a right to be idiotic'
p2712
aS'Madonna files adoption papers'
p2713
aS'Gunmen kill 9 at Iraqi TV station'
p2714
aS'Hastert sorry for scandal but not quitting'
p2715
aS'Ex-JonBenet suspect: Child porn case dropped '
p2716
aS'Waste plant fire forces 5,000 to evacuate '
p2717
aS'Toddler died from E. coli tainted spinach '
p2718
aS'Disturbing finds in child sex raids '
p2719
aS'Magazine lists women who had abortions '
p2720
aS"Pot smokers may avoid Alzheimer's, study says "
p2721
aS"Student starts white men's club on campus "
p2722
aS'Kentucky wants to ban alcohol inhalers '
p2723
aS'Peter Pan flies into chapter two '
p2724
aS'Teen repellent inventor wins infamous prize '
p2725
aS"Cher's dress, car, bed have new owners"
p2726
aS'Dow hits new record, eyes 12,000 '
p2727
aS'Ex-Virginia gov not running for president '
p2728
aS"Yankee pitcher's pilot log found "
p2729
aS"Dem leader's $1 million land deal under scrutiny "
p2730
aS'Dad locked up son, watched on TV, police say '
p2731
aS'Navarrette: Minutemen have a right to be idiotic '
p2732
aS'Pit bulls jump miniature pony, leave her bloody '
p2733
aS'Alaska town cut off from rest of state by flood '
p2734
aS'Trailblazing trio protects City by the Bay '
p2735
aS'Madonna files adoption papers in Malawi'
p2736
aS"'Dr. McDreamy' choked in 'Grey's' scuffle "
p2737
aS'$10,000 poetry prize awarded '
p2738
aS'Las Vegas honour for tiger pair '
p2739
aS'UK characters boosting box office '
p2740
aS'Cher items snapped up at auction '
p2741
aS"Griffiths scorns Withnail 'play' "
p2742
aS'Lily Allen wins web music award '
p2743
aS'Costner appeals in casino wrangle'
p2744
aS'Beyonce copyright claim rejected '
p2745
aS'Cohn gunman jailed for 36 years '
p2746
aS"Melua's deep sea gig sets record "
p2747
aS'Sri Lanka clashes kill 129 troops '
p2748
aS'Gunmen kill 11 in Iraq TV raid '
p2749
aS'Italy drops Sicily bridge plans '
p2750
aS'Amish killings school demolished '
p2751
aS'Pamuk wins Nobel Literature prize'
p2752
aS'Madonna adoption bid approved '
p2753
aS'Man admits UK-US terror bomb plot'
p2754
aS'Who are you calling fat?'
p2755
aS'Test to predict breast cancer relapse is approved'
p2756
aS'Two Hussein allies are hanged, Iraqi official says'
p2757
aS'Sights and sounds from CES'
p2758
aS'Schuey sees Ferrari unveil new car'
p2759
aS'Closings and cancellations top advice on flu outbreak'
p2760
aS'Trucks swallowed in subway collapse'
p2761
aS'Sarkozy letter surprises French cartoons hearing'
p2762
aS'Building a memorial to a son, one child at a time'
p2763
aS'Lawmaker seeks iPod ban in crosswalks in New York'
p2764
aS'Diabetic waits months for eyeglasses'
p2765
aS'Sudan tells United Nations envoy to leave in 72 hours'
p2766
aS'5000 years on but couple still hugging'
p2767
aS"Defense to challenge Russert's credibility"
p2768
aS'Ozzy, a Hero for the hard-rocking masses'
p2769
aS'CIA leak trial summary'
p2770
aS'Dance movie takes over No. 1'
p2771
aS'Asian nations urge Myanmar reform'
p2772
aS'After Iraq trip, Clinton proposes war limits'
p2773
aS'7 dead in apartment building fire'
p2774
aS"Male sweat boosts women's hormone levels"
p2775
aS"Carphone Warehouse's mixed signals"
p2776
aS'Democrats plot Bush troop increase censure'
p2777
aS'Cisco sues Apple over iPhone name'
p2778
aS'BB star Jackson denies Goody comments'
p2779
aS'Inter Milan set Serie A win record'
p2780
aS'US Airways boosts bid for Delta'
p2781
aS'Press sees hope in Mecca talks'
p2782
aS'Bears fan loses bet and changes name'
p2783
aS'Global National\tMajor child porn ring bust'
p2784
aS"'Human hair' clue in hunt for airliner"
p2785
aS'Johnny Depp to make movie of spy poisoning'
p2786
aS'Really?: The claim: the pill can make you put on weight'
p2787
aS'5 money makeovers'
p2788
aS'TBS to pay $2M fine for ad campaign bomb scare'
p2789
aS'"Stomp the Yard" has winning moves in its weekend debut'
p2790
aS'Discovered boys bring shock, joy'
p2791
aS'Bernhard set to leave Volkswagen'
p2792
aS"Pacers' Jackson misses gun hearing"
p2793
aS'Cases: when the simple solution is the right one'
p2794
aS'Two Muslim groups sue French newspaper International'
p2795
aS'Golden Globes on their way'
p2796
aS"At New OZZFEST, Freedom Ain't Free"
p2797
aS'Federer handed tough Aussie draw'
p2798
aS'Protesters end strike as Nepal PM concedes demands'
p2799
aS'Turner pays for Boston "bombing"'
p2800
aS'Two detained in body parts mailing'
p2801
aS'Essay: about that mean streak of yours: psychiatry can do only so much'
p2802
aS"Hussein's niece pleads for father's life"
p2803
aS'Sarkozy heads for clash in cartoons row'
p2804
aS'Global web of suspects in child-rape download'
p2805
aS'Blake defeats Moya to retain title'
p2806
aS'Storms kill, knock out power, cancel flights'
p2807
aS'Aquarium puts ailing beluga whale to sleep'
p2808
aS'Microsoft, Sony, we have a problem'
p2809
aS'A police state? The issues'
p2810
aS'Move to ban iPods from crossing the street'
p2811
aS"India's Taj Mahal gets facelift"
p2812
aS"Cheney to Congress: Can't run Iraq war by committee"
p2813
aS'Ganguly handed India squad call-up'
p2814
aS'Fortune: Looking beyond the iPhone'
p2815
aS'Really?: The claim: the back seat of a car is the safest place to sit'
p2816
aS'Vaccine mandate upsets legislators'
p2817
aS'News analysis: Iranian boast is put to test'
p2818
aS'Panel issues bleak report on climate change'
p2819
aS"Virtual 'American Idol' hits right notes"
p2820
aS'Iraq car bombings kill 22 People, wound more than 60'
p2821
aS"'Stomp' steps to No. 1 at box office"
p2822
aS'Google executive acts as goodwill envoy'
p2823
aS'Filipino woman kidnapped in Nigeria'
p2824
aS'Seahawks, Bears vie for shot at NFL title'
p2825
aS'Brown not buried as estate issues loom'
p2826
aS"Will Rob Cohen Direct Third 'Mummy'?"
p2827
aS'EU will urge China to go green'
p2828
aS'17th-Century Remedy; 21st-Century Potency'
p2829
aS'Forecasters expect toasty 2007'
p2830
aS"'Sunshine' Goydos wins Sony open"
p2831
aS'Teacher charged with sex assault'
p2832
aS'Merck: Gardasil may fight more strains'
p2833
aS'Mountain glaciers melting faster, United Nations says'
p2834
aS'Snow causes airport closures in Britain'
p2835
aS'Bananaconda inventor is top poet of kids'
p2836
aS'Shareholders sue Apple'
p2837
aS'Israelis retaliate after attack by Lebanese Army'
p2838
aS'Deadly bird flu confirmed in British Turkeys'
p2839
aS'Too little sleep may mean too fat kids'
p2840
aS'Bathing mom awakes to find baby dead'
p2841
aS'Visitors to Eiffel Tower climb to record in 2006'
p2842
aS'More sleep, healthier slimmer children '
p2843
aS'Queen battles Bond for Baftas'
p2844
aS"Walters on Trump: 'Poor, pathetic man'"
p2845
aS'Ice storm smacks roads, power'
p2846
aS'Iran says it will strike US interests if Attacked'
p2847
aS'Palestinian factions to resume talks'
p2848
aS"Study: men's sweat triggers high sexual arousal in women"
p2849
aS"Outcry at N Korea 'nuclear test'"
p2850
aS'Russia plans major military build-up'
p2851
aS'Archaeologists find remains of couple locked in a hug'
p2852
aS'Stenson defends his title at Dubai'
p2853
aS'Taking the plunge'
p2854
aS"Updates on world's top stories"
p2855
aS'Man rides stationary bike for 85 hours'
p2856
aS'Ice storm coating Midwest'
p2857
aS'A Mistrial for Lieut. Watada'
p2858
aS'Iran warns will hit back at US if attacked'
p2859
aS'ASEAN talks end on energy-security'
p2860
aS'Iraqi death toll exceeded 34,000 in 2006, United Nations says'
p2861
aS'Israel intensifies military flights over Lebanon'
p2862
aS'New gadgets galore at tech show'
p2863
aS'Another death at Georgia Aquarium'
p2864
aS'US to urge Nato Afghan spring offensive'
p2865
aS'UK letter bombs may be from extremist drivers'
p2866
aS'Asia seeks breakthrough on North Korea'
p2867
aS'Federer overcomes a ragged start'
p2868
aS'Rowdy fans ejected from the Open'
p2869
aS"Terai protesters hail 'historic' victory over government"
p2870
aS'Anger at release of two held over beheading plot'
p2871
aS'Bush adamant on troops to Iraq'
p2872
aS"Bebe Neuwirth gets to 'wiggle again'"
p2873
aS'Beckham to L.A.: For the game not fame'
p2874
aS'Sleep more to fight childhood obesity'
p2875
aS'Abbas rejects temporary state'
p2876
aS'Investigation of child porn site hits 77 nations'
p2877
aS'Sleuths close in on Odysseus home'
p2878
aS'Variety: Johnny Depp to make movie of spy poisoning'
p2879
aS'Ice storm cripples central U.S.'
p2880
aS'Park stars as United maintain lead'
p2881
aS'Prehistoric Romeo and Juliet discovered'
p2882
aS"India's famous landmark gets facelift"
p2883
aS"Joseph Wambaugh's new start"
p2884
aS'Participant in water-drinking contest dies'
p2885
aS'Apple drops bombshell with iPhone'
p2886
aS"Bollywood's 'Brangelina' engaged"
p2887
aS'Shiite fighters arrested in crackdown, Iraq says'
p2888
aS'Rio De Janeiro journal: drawing lines across the sand, between classes'
p2889
aS"Models' health guidelines -- will they help?"
p2890
aS'Stepping back in time at ski resort'
p2891
aS'Test cricketer jailed over killing'
p2892
aS"Walnuts 'combat unhealthy fats'"
p2893
aS"Apple to Vista upgraders: 'Wait'"
p2894
aS'Injured Sarwan to miss one-dayers'
p2895
aS'Firms on alert for letter bombs'
p2896
aS'Studios sign off on movie downloads'
p2897
aS'Asif returns with four-wicket haul'
p2898
aS"Bush authorized Iranians' arrest in Iraq, Rice says"
p2899
aS'Porn ring scandal reaches Australia'
p2900
aS'Deputy health minister arrested in US-Iraqi raid'
p2901
aS'Senator Carl Krueger thinks iPods can kill you'
p2902
aS'Finally, Senate okays anti-terror bill Manila'
p2903
aS'Somalia declares state of emergency'
p2904
aS'Matt shines with his Alpine finish'
p2905
aS'BP CEO Browne to step down in June'
p2906
aS'An iPhone by any other name? Surely not'
p2907
aS'Life in Gaza steadily worsens'
p2908
aS'The energy challenge | Exotic visions: how to cool a planet (maybe)'
p2909
aS'Easy ways to (really) save $400,000'
p2910
aS'Shareholders sue Apple'
p2911
aS'Findings: Can humanity survive? Want to bet on it?'
p2912
aS'Iran steps up production of weapons-grade uranium'
p2913
aS'Rig-threat cargo ship towed ashore'
p2914
aS'Palestinians say clashes hurt their cause'
p2915
aS'Male sweat can raise hormones'
p2916
aS'Vital Signs: Hazards: Antidepressant linked to fractures in older people'
p2917
aS"Peron held over '70s rights abuses"
p2918
aS'Space life search turns to TV'
p2919
aS'Super Bowl ads of cartoonish violence, perhaps reflecting toll of war'
p2920
aS'YouTube told to drop celeb sex video'
p2921
aS'Beckham, Posh and more athlete-celebrity couples'
p2922
aS'City sets up ice storm shelters'
p2923
aS"Libby prosecutors await judge's rulings"
p2924
aS"Review: 'Alpha Dog' misses the point"
p2925
aS'Republicans plan to block Iraq debate'
p2926
aS"Mixed reaction to China's Africa push"
p2927
aS'Snowed in the Canadian Rockies'
p2928
aS'Skip the showers: male sweat turns women on, study says'
p2929
aS"Gently Weeps' lyrics sheet up for sale"
p2930
aS'Canete wins inaugural Joburg Open'
p2931
aS'Rights group halts violent Nepal strikes'
p2932
aS'Real suffer Carlos injury setback'
p2933
aS'Astronaut may have buckled under stress'
p2934
aS'Gunmen abduct Filipino woman in Nigeria'
p2935
aS"NFL team's fan of the year: 'Flag Lady'"
p2936
aS'No 10 rejects police state claim'
p2937
aS'Malaysian AirAsia X to fly in July'
p2938
aS'10 kidnapped at Nigeria oil base'
p2939
aS'Guy sweat is babe magnet'
p2940
aS'Township tourism booming in South Africa'
p2941
aS"'Alpha Dog' misses the point"
p2942
aS'Iran leader pays Nicaragua a visit'
p2943
aS"'Grey's,' 'Pirates' lead People's Choice"
p2944
aS'Terror network'
p2945
aS"Now it's official: Iraq's a mess"
p2946
aS'Snow brings travel misery to England'
p2947
aS"James Brown's 5-year-old son left out of will"
p2948
aS'Two men killed by London tube train'
p2949
aS'US millions fail to buy influence in deadly Gaza power play'
p2950
aS'PLO ministers agreed upon in Mecca'
p2951
aS"Squadron apologies over 'friendly-fire' death"
p2952
aS'New Orleans violence sparks tourism fears'
p2953
aS"Friendly fire pilot 'experienced'"
p2954
aS'SPACE.com: Black hole triplets spotted'
p2955
aS'Vaccines: Mandate or choice?'
p2956
aS'Congolese soldiers riot, loot over pay issue'
p2957
aS'Commodities lead Europe higher'
p2958
aS"Ingredient in male sweat raises women's hormone levels"
p2959
aS'Goetschl ends Austrian win drought'
p2960
aS'Doomsday Clock ticking away'
p2961
aS'Troops massing around Somali town'
p2962
aS'Tariq Ramadan has an identity issue'
p2963
aS'Peretz orders IDF to respond with force to north border attacks'
p2964
aS'Trains crash near Thai resort town'
p2965
aS"Hamas, Fatah return to unity gov't talks in Mecca"
p2966
aS"Pats' fourth-quarter rally finishes Chargers"
p2967
aS'7 Die As US Helicopter Crashes in Iraq'
p2968
aS'Millionaire secret Santa dies'
p2969
aS'Morrissey may cheer up Eurovision'
p2970
aS'Christian values guide Dungy and the Colts'
p2971
aS"Israeli woman's tirade spurs PM outrage"
p2972
aS'Passing exchange becomes political flashpoint'
p2973
aS'Police probe 2 church fires half mile apart'
p2974
aS"Italy to try US soldier for agent's Iraq death"
p2975
aS'Depp to star in spy poisoning film'
p2976
aS"'24's' Jack Bauer returns"
p2977
aS'US Airways boosts bid for Delta'
p2978
aS'Even before its release, world climate report is criticized as too optimistic'
p2979
aS'Second hanging also went awry, Iraq tape shows'
p2980
aS'Howell takes one shot lead in Sony Open'
p2981
aS"Psych checks reviewed after astronaut's crack-up"
p2982
aS'Pap Test, a mainstay against cervical cancer, may be fading'
p2983
aS'Martins leads Newcastle fightback'
p2984
aS'PS3 pricey but impressive'
p2985
aS"Pluto's revenge: 'Word of the Year' award"
p2986
aS'European Space Agency'
p2987
aS'Hackers strike at key Internet servers'
p2988
aS'Hussein co-defendants executed'
p2989
aS'Memo from Frankfurt: Germany relives 1970s terror as 2 seek release from jail'
p2990
aS'Blissing out in Ojai'
p2991
aS"Houston, she's got some problems"
p2992
aS"Amazon.com has 'best ever' sales"
p2993
aS'Hackers attack root servers'
p2994
aS'Video games can improve your vision'
p2995
aS'Internet attacked! (Did anyone notice?)'
p2996
aS'In Washington, contractors take on biggest role ever'
p2997
aS'Floods force Malaysia evacuations'
p2998
aS'On MySpace, girls seek friends, boys flirt'
p2999
aS'Tests of drug to block H.I.V. infection are halted over safety'
p3000
aS'Zoo polar bear to have root canal'
p3001
aS'Europe take big Royal Trophy lead'
p3002
aS'Israel to install cameras to show live Mughrabi footage'
p3003
aS"'We lit our last candle yesterday'"
p3004
aS'Google buys YouTube for $1.65bn'
p3005
aS'PSP number one Sony platform in Japan'
p3006
aS'England include Giles in WC squad'
p3007
aS"Beckham 'won't play again for Real'"
p3008
aS'Eight years for Damilola killers'
p3009
aS'PC World editor slain at California home'
p3010
aS"Hands on 'Doomsday Clock' move forward"
p3011
aS"Zach Braff says he has 'mild depression'"
p3012
aS'Investigation of child porn site hits 77 nations USA Today'
p3013
aS'Science panel calls global warming unequivocal'
p3014
aS'News Baby pandas! Baby pandas! Baby pandas!'
p3015
aS'Get ready for the earnings'
p3016
aS'Germany agonizes over a brain drain'
p3017
aS'Iran and Nicaraguan leaders meet'
p3018
aS'Secret hotels in Irish countryside'
p3019
aS'Fine wines in British Columbia'
p3020
aS'Philippine president welcomes Senate approval of anti-terror bill '
p3021
aS'Small jet crashes on takeoff, killing 2'
p3022
aS'Bigger, more aggressive rats infesting UK'
p3023
aS'Travel+Leisure: Next island hot spot: St. Lucia'
p3024
aS'Real Mallorca rock leaders Sevilla'
p3025
aS"Iran's boast on uranium enrichment is put to test"
p3026
aS'Personal health: for teenagers, the car is the danger zone'
p3027
aS'Bird watchers flock to see rare owl'
p3028
aS'Eye on cosmos is lost to short circuit on hubble'
p3029
aS'Too young for this: facing cancer under 40'
p3030
aS'Unilever group names new chairman'
p3031
aS'Minister slams airlines on carbon'
p3032
aS'Rare optimism as North Korea talks reach crossroads'
p3033
aS'Man beheaded in southern Thailand'
p3034
aS"China's 'nightmare scenario'"
p3035
aS'Annual diving contest in South Korea proves a chilly challenge'
p3036
aS"Blair says he regrets delays in British soldier's inquest"
p3037
aS'Iraqi forces detain official suspected in Shia conspiracy'
p3038
aS'Wellcome awards anti-fat research'
p3039
aS'Fingers crossed for North Korea'
p3040
aS'No intention of war with Iran, US says'
p3041
aS'What Newsom faces in aftermath of scandal'
p3042
aS"Maggie Gyllenhaal's Globes babysitter: Mom"
p3043
aS'As inflation soars, Zimbabwe economy plunges'
p3044
aS'Pledge: I was abused in frat hazing'
p3045
aS'Experts: Fear likely shackled boy'
p3046
aS"What's behind the chopper crashes in Iraq"
p3047
aS'Freed Muslim terror suspect says Britain is "police state"'
p3048
aS'Blair apologises over friendly fire inquest'
p3049
aS"Depp 'to make Litvinenko movie'"
p3050
aS'Why gas follows oil up but not down'
p3051
aS"'Cravings' still there, sez Tara"
p3052
aS'Bill would strip convicted legislators of pensions'
p3053
aS'Bears watch as lead slips away'
p3054
aS'In clue to addiction, brain injury halts smoking'
p3055
aS'In rigorous test, talk therapy works for panic disorder'
p3056
aS"Rice: U.S. won't pull plug on Iraq"
p3057
aS'On road to Kosovo independence, a warning: go slow'
p3058
aS'Mistrial for officer who refused to go to Iraq'
p3059
aS'Rebels to join Nepal parliament'
p3060
aS'EMI warns on profits, boss goes'
p3061
aS'Subway collapse caught on camera'
p3062
aS"Stinky but true: men's sweat is made for love"
p3063
aS'POLITICS-US: reprieve for officer who denounced "Immoral War"'
p3064
aS"Hunters stalk world's tallest trees"
p3065
aS'Fuel spill may lead to missing jet'
p3066
aS'Sri Lanka floods displace 60,000'
p3067
aS'Justin Timberlake, Cameron Diaz announce split'
p3068
aS'Iran to hit US interests if attacked'
p3069
aS'Israel says hopes to keep Lebanon border calm'
p3070
aS'Cisco sues Apple over iPhone name'
p3071
aS'Two Palestinians killed near fence'
p3072
aS'EarthLink CEO dies at age 49'
p3073
aS'A star dies, a family feud is born'
p3074
aS'Carter was a disaster, said Ford'
p3075
aS"Super Bowl MVP Manning insists he's one of the guys"
p3076
aS'Personal health: the importance of knowing what the doctor is talking about'
p3077
aS"Israel's Peretz urges halt to contentious Jerusalem construction"
p3078
aS'Peter Jackson will never work for me again'
p3079
aS'U.S. keeps Iran options open'
p3080
aS'European shares hit fresh highs'
p3081
aS"For women, nothing's like the smell of men's sweat"
p3082
aS'Looking beyond the iPhone'
p3083
aS'Freed kidnap suspect: my terror at police raid'
p3084
aS"Far away, Super Bowl's losers will be champs"
p3085
aS'Woman dies after water binge'
p3086
aS'Mancuso sparks U.S. celebrations'
p3087
aS'ASEAN urges North Korea resolution'
p3088
aS'Late penalty costs Roma the points'
p3089
aS'Mistrial declared in teacher-student rape case'
p3090
aS"'Bookworm Adventures' wordsmith's joy"
p3091
aS"Kylie's love split"
p3092
aS'iPod good for video games'
p3093
aS"Review: virtual 'American Idol' hits right notes"
p3094
aS'Leo battles himself'
p3095
aS"Attorneys point fingers in fight between Ryan O'Neal and son"
p3096
aS'John Grisham set for court drama'
p3097
aS'Bill Gates and Craig Mundie: vista is Secure, employees are not'
p3098
aS'Iraqis fault delayed U.S. plan in attack'
p3099
aS'Boy Scouts blamed for starting wildfire'
p3100
aS'China urges UN action on N Korea'
p3101
aS'Scorpion on a plane, a pantful of pain'
p3102
aS"Male sweat boosts women's hormone levels"
p3103
aS'Mbeki on the big visit from the Chinese'
p3104
aS'French right nominates Sarkozy'
p3105
aS'Israeli, Lebanese clash on border'
p3106
aS'North Korea claims nuclear test'
p3107
aS'Talks begin on Somalia peacekeepers'
p3108
aS'Action games improve eyesight'
p3109
aS'A small part of the brain, and its profound effects'
p3110
aS'IDF shells Lebanese Army positions across northern border'
p3111
aS'Thailand: missing 25 years after taking wrong bus'
p3112
aS'Ballerina sparks anti-fascist row'
p3113
aS'Internet boom in China is built on virtual fun'
p3114
aS'Review: PS3 pricey but impressive'
p3115
aS'Machinery orders drive Asia upward'
p3116
aS"'Lost's' Fox: 'I'm a liar and a cheat'"
p3117
aS'Russia to strengthen its military muscle'
p3118
aS'At Libby trial, Russert of NBC gives and gets'
p3119
aS'North Korea ready to discuss first steps to nuclear resolution'
p3120
aS'Victim: Gunman bought drink after shooting'
p3121
aS'Ferrer victorious in Spanish duel'
p3122
aS'UK workers on alert for letter bombs'
p3123
aS'Did NASA accidentally kill life on Mars?'
p3124
aS'New vaccine for cervical cancer could prove useful in men, too'
p3125
aS'Search on for victims of subway collapse'
p3126
aS'Human error caused Helios crash'
p3127
aS'US to prod NATO allies for more troops to defeat Taliban'
p3128
aS'Microsoft supports OpenID authentication standard'
p3129
aS'No buyer in sight for Napster'
p3130
aS'Briefly: preloaded iPods, Wal-Mart movies, Apple stores'
p3131
aS'China says rich countries should take lead on global warming'
p3132
aS'North Korea may begin to dismantle nukes'
p3133
aS'Tracking down hi-tech crime'
p3134
aS'Barack Obama formally announces bid for president'
p3135
aS'Kidnappers seize two in Nigeria'
p3136
aS'Indonesia may sell, not give, bird flu virus to scientists'
p3137
aS'Attack video saddens "friendly fire" widow'
p3138
aS'Europe retain trophy with big win'
p3139
aS'Cutting edge accessories for digital music players'
p3140
aS'Ice storm descends on central U.S.'
p3141
aS'Snow brings travel misery to England'
p3142
aS'Indonesia flood forces 340,000 from homes'
p3143
aS'Iraqi health minister seized in raid '
p3144
aS'Ice storm brings chaos in U.S.'
p3145
aS'Stinky flower mystery solved'
p3146
aS'Congressman rebukes U.S. allies for lack of support in Afghanistan '
p3147
aS'Roddick overcomes Federer in final'
p3148
aS'Prehistoric Romeo and Juliet discovered'
p3149
aS'Donald and Goydos share Sony lead'
p3150
aS'U.S. and Iraqis are wrangling over war plans'
p3151
aS'Sea search for missing Microsoft scientist'
p3152
aS'Iran to Hit US Interests if Attacked'
p3153
aS'Blair: Terror battle will be long'
p3154
aS'Bear cub returned to the wilderness'
p3155
aS'Carrefour sales growth falls short'
p3156
aS'Allied with democrats, Lieberman easily aligns with Republicans'
p3157
aS'In the Rockies, pines die and bears feel it'
p3158
aS'Iran to strike US interests if attacked'
p3159
aS'Nipple covers, other star secrets'
p3160
aS'Apple: no iTunes for you if you have Vista!'
p3161
aS'Smokestacks in a white wilderness divide Iceland'
p3162
aS"That'll cost ya"
p3163
aS'Botched hangings in Iraq speed sectarianism'
p3164
aS'Male sweat raises female hormones'
p3165
aS'7 GOP senators to force debate on troops in Iraq'
p3166
aS'Bangladesh ends curfew amid unrest'
p3167
aS"Italy's dispute with US over Iraq shooting"
p3168
aS'Here come the Globes!'
p3169
aS'Snow causes transport chaos in Britain'
p3170
aS'Snow causes airport closures in Britain'
p3171
aS'Second opinion: girl or boy? as fertility technology advances, so does an ethical debate'
p3172
aS'Heavy snow causes travel chaos and shuts schools'
p3173
aS"Barbaro's legacy: saving other horses"
p3174
aS"Luxury digs in South Carolina's Lowcountry"
p3175
aS'Dozens killed in Baghdad bombing'
p3176
aS'Ice storms kill 21 across nation'
p3177
aS'De Villiers takes over Dakar lead'
p3178
aS"Vietnam becomes WTO's 150th member"
p3179
aS'South African trio share advantage'
p3180
aS'Observatory: poison begets poison'
p3181
aS'Action intensity boosts vision'
p3182
aS"Why the smell of a man's armpit is a turn-on"
p3183
aS'Nokia 5300 Xpress Music'
p3184
aS'Dell to cut bonuses, trim management'
p3185
aS'Second drop in cancer deaths could point to a trend, researchers say'
p3186
aS'TV game shows go interactive'
p3187
aS'Boy missing since 2002 found alive'
p3188
aS'US, North Korea signed nuclear memo'
p3189
aS'Russia honors Sputnik designer'
p3190
aS"In Kenya's capital, a sense that danger is ever stronger"
p3191
aS'Bill, thanks for the RSA memories... and laughs'
p3192
aS"Friendly fire pilot 'experienced'"
p3193
aS'MySpace welcomes French friends'
p3194
aS'Airlines: UK airport runway unsafe'
p3195
aS'The amounts you have to pay for a bomb scare'
p3196
aS'In Egypt, Rice speaks softly'
p3197
aS"Weekly Nielsen Yvonne De Carlo, 'Munsters' star, dead"
p3198
aS'Senate votes to revoke pensions'
p3199
aS'EarthLink CEO dies at age 49'
p3200
aS'Software giant SAP misses target'
p3201
aS'Vital signs: mental abilities: folic acid may improve thinking skills'
p3202
aS'De Villiers stretches overall lead'
p3203
aS'Families celebrate return of sons'
p3204
aS'China detains 2 after body parts found in mail'
p3205
aS'North Korea ready to discuss nuke disarmament'
p3206
aS"For women, nothing's like the smell of men's sweat"
p3207
aS'Nadal wants Australian Open crown'
p3208
aS'Beijing journal: Olympic construction unearths ancient treasure trove'
p3209
aS'Chinese president arrives in Mozambique, African tour nearly over'
p3210
aS"Reclusive 'Mockingbird' author attends show"
p3211
aS'Asia near pact on energy, security'
p3212
aS'Philippine anti-terror law delayed until June'
p3213
aS'Ex-suspect slams anti-terror laws'
p3214
aS"Study detects a gene linked to Alzheimer's"
p3215
aS'Panda cub makes her debut'
p3216
aS'Harris haul puts South Africa on top'
p3217
aS'Weight-loss drug to be sold over the counter'
p3218
aS'Beckham outlines reasons for move'
p3219
aS'Study finds gritty air raises heart disease risk in older women'
p3220
aS'Venezuela, Iran fight U.S. dominance'
p3221
aS"'Housewives' star Marcia Cross on bed rest"
p3222
aS'Blog: Here come the Globes!'
p3223
aS'Greek police hunt embassy attackers'
p3224
aS'Apple warns iTunes users to wait on Vista'
p3225
aS'Tsunami fears ease after quake'
p3226
aS'China considers Eurobond reserves'
p3227
aS'Underarm bowls them over'
p3228
aS'At least 130 die as blast levels Baghdad market'
p3229
aS'New McCain team made attack ads he once faulted'
p3230
aS'Deaths as bird flu flares in Asia'
p3231
aS'Hamas, Fatah leaders pledge to meet until they reach agreement'
p3232
aS"Officers had 'rapport' with alleged abductor"
p3233
aS'No e-Book for Harry Potter VII'
p3234
aS'Review: Nokia 5300 Xpress Music'
p3235
aS"'Can't do this anymore'? Not Jack"
p3236
aS'Black hole triplets spotted'
p3237
aS'Israel weighs old city project webcast'
p3238
aS'Indonesian bird flu deaths hit 61'
p3239
aS'Somali refugees cut off from aid'
p3240
aS'Microsoft downplays Vista speech-recognition hack'
p3241
aS'Next island hot spot: St. Lucia'
p3242
aS'Italy to hold no-show trial of Bronx GI in Iraq slay'
p3243
aS"Rescued boys parents hail 'miracle'"
p3244
aS'Canadians tracked in child porn ring'
p3245
aS'Teen hacks Venezuelan government Web sites'
p3246
aS'Russia plans new ICBMs, nuclear subs'
p3247
aS'Gere cheers sex workers in AIDS fight'
p3248
aS'Study: Male sweat causes female hormones to rise'
p3249
aS'Collision on icy road kills 7'
p3250
aS'Surprise: China cuts price of gas'
p3251
aS'What the Godfather of Soul meant to me'
p3252
aS'New Mars orbiter spots Pathfinder landing site'
p3253
aS'Mass Venezuela opposition rally'
p3254
aS"Glamour -- and 'Borat' -- at Golden Globes"
p3255
aS'Terror officials see Al Qaeda chiefs regaining power'
p3256
aS'Ivrea journal: In Italian town, a civics lesson from pelting neighbors'
p3257
aS'Iraqi sunni lands show new oil and gas promise'
p3258
aS'Princess and heir of Franz Ferdinand fights to repeal a law and gain a castle'
p3259
aS'A film star in Kampala, conjuring aminos ghost'
p3260
aS'Militants attack U.S. base in Iraq'
p3261
aS'North Africa feared as staging ground for terror'
p3262
aS'Iran says Sunnis, using Pakistan as base, planned fatal bombing'
p3263
aS'Anglicans rebuke U.S. branch on same-sex unions'
p3264
aS'Homemade bombs kill 65 on Indian train'
p3265
aS'Al Qaeda chiefs are seen to regain power'
p3266
aS'Chvez threatens to jail violators of price controls'
p3267
aS"Bush declares Iran's arms role in Iraq is certain"
p3268
aS'Accord on North Korea is announced'
p3269
aS'U.S. says powerful Iraqi cleric is living in Iran'
p3270
aS'Baghdad plan is a success, Iraq prime minister tells Bush'
p3271
aS'Iraqi sunni lands show new oil and gas promise'
p3272
aS'Dispute over Iraqi cleric, said to have gone to Iran'
p3273
aS'Planning seen in Iraqi attacks on U.S. copters'
p3274
aS'In the world of life-saving drugs, a growing epidemic of deadly fakes'
p3275
aS'Basics: a mammal in winter with a furnace of her own'
p3276
aS'Books on science: The problems in modeling nature, with its unruly natural tendencies'
p3277
aS"Believing scripture but playing by science's rules"
p3278
aS'A familiar and prescient voice, brought to life'
p3279
aS'Findings : A cool $25 million for a climate backup plan'
p3280
aS"Call it serendipity: a missing piece of Washington's war tent is found"
p3281
aS"Free Will: Now you have it, now you don't"
p3282
aS"Archaeologists find signs of early chimps' tool use"
p3283
aS'Wizardry at Harvard: physicists move light'
p3284
aS'The summit - a slap in the face of the Palestinians'
p3285
aS'Moscow says Palestine-Israeli contacts key to Mideast peace'
p3286
aS'Mideast summit edns with little progress'
p3287
aS"India decries 'an act of sabotage'"
p3288
aS'Pakistan-India peace talks planned despite bombings'
p3289
aS'Czechs, Poles get missile warning'
p3290
aS'Russia warns US against missile bases in East Europe'
p3291
aS'Cheney starts visit to Japan, Australia'
p3292
aS'China: Cheney shores up the trilateral alliance'
p3293
aS'Iraq insurgents attack US base'
p3294
aS'US soldiers die in day of violence'
p3295
aS'Iraqi suicide attack kills two US troops as militants fight purge'
p3296
aS'Iran reneges on nuclear payments to Russia'
p3297
aS'Top Colombia official resigns'
p3298
aS"Colombia FM resigns after relatives' arrests for militia links"
p3299
aS'Foreign minister of Colombia quits in scandal'
p3300
aS'New Zealand unlikely to allow crippled Japanese whaler'
p3301
aS'Damaged Japanese whaling ship may resume hunting off Antarctica'
p3302
aS"Japanese whaling ship won't accept help"
p3303
aS'Iran top N-envoy heads for Vienna for nuke talks'
p3304
aS'Victims of Air India still wait for justice'
p3305
aS'Kanishka bombing case: Inquiry judge threatens to quit'
p3306
aS'Judge threatens to shut down Air-India inquiry'
p3307
aS'Royal rescues presidential hopes with commanding performance'
p3308
aS'Royal seeks to revive French bid'
p3309
aS'Sarkozy comfort zone offers a royal opportunity'
p3310
aS'Hicks first in line for trial, Bush says'
p3311
aS'Australia tells Bush to speed up Guantanamo trial'
p3312
aS'Howard presses Bush on terror suspect'
p3313
aS'France ends toxic alert at Canadian embassy in Paris'
p3314
aS'Paris police investigate package at Canadian embassy'
p3315
aS'False alarm at Canadian embassy in Paris'
p3316
aS'Afghan forces retake town that was overrun by Taliban'
p3317
aS'Taliban seize rural district in southwest as police flee'
p3318
aS'Afghan poppy war alienates farmers'
p3319
aS'Will North Korea honor pledge this time?'
p3320
aS'Kim Jong-il bans Japanese cars in North Korea'
p3321
aS'Iran vs. North Korea: not all enemies are equal'
p3322
aS'Catholic archbishop outlines Anglican merger hopes'
p3323
aS'Anglican and Catholic churches could merge'
p3324
aS'US helicopter crash kills 8 troops in Afghanistan'
p3325
aS'Eight US soldiers killed in Zabul helicopter crash'
p3326
aS'Arroyo lauds passage of anti-terror bill'
p3327
aS'House passes anti-terrorism measure Manila'
p3328
aS"Livingstone's transport empire may extend"
p3329
aS'London is pace-setter on congestion toll, says mayor'
p3330
aS"Protest greets congestion charge's westward push"
p3331
aS'Thailand attacks kill three, injure 70'
p3332
aS'Thai Govt moves to smooth over relations with south'
p3333
aS"Bombings say Muslim rebels won't negotiate"
p3334
aS'Roots of autism more complex than thought'
p3335
aS'Largest ever autism study identifies two genetic culprits'
p3336
aS'Canadian breakthrough offers hope on autism'
p3337
aS'Beware of peanut butter pathogens'
p3338
aS'Experts offer advice on salmonella'
p3339
aS'Experts issue new heart disease guidelines for women'
p3340
aS'For women, aspirin a day could keep stroke away'
p3341
aS'High cholesterol raises stroke risk healthy women'
p3342
aS'Cooked chicken breasts join tainted-food recalls'
p3343
aS'Ready to eat chicken breasts recalled due to suspected listeria'
p3344
aS'Fully-cooked chicken strips recalled '
p3345
aS'Committee debates cancer vaccine plan'
p3346
aS'Stop cancer with a shot'
p3347
aS'1 mln birds to be vaccinated from bird flu near Moscow'
p3348
aS'Thousands tested after Russian H5N1 outbreak'
p3349
aS'Russian bird flu outbreak is deadly "Asian strain"'
p3350
aS'Bernard Matthews to lay off up to 500 workers'
p3351
aS'Matthews lays off 130 turkey workers'
p3352
aS'Reopening bird flu-hitfactory ignores risks - poultryman'
p3353
aS'Goodbye to girlhood'
p3354
aS'Media cited for showing girls as sex objects'
p3355
aS"Sexualisation 'harms' young girls"
p3356
aS'A shot in the arm'
p3357
aS'Thousands line up to get late flu shots'
p3358
aS'King county offering some free flu vaccines'
p3359
aS'Bush vows cooperation on health care'
p3360
aS"Health returns as hot issue in '08 race"
p3361
aS'Small-business owners find Bush health plan appealing'
p3362
aS'Pediatricians say more cord blood is needed now'
p3363
aS'Whether to save cord blood can be puzzle for parents'
p3364
aS'Retinal implant helping blind people see again'
p3365
aS'Indonesia "will not share" flu samples'
p3366
aS'Health Canada issues advice on canned tuna'
p3367
aS'Cholesterol link in diabetes study'
p3368
aS'Pig cells hope for diabetes cure'
p3369
aS'Sick hearts switch on a fetal gene'
p3370
aS'Foetal mechanism helps heart failure'
p3371
aS'Planned cesareans not risk-free, group warns'
p3372
aS"Scientists tout cocoa's health benefits"
p3373
aS'Feeding your brain: new benefits found in chocolate'
p3374
aS'Some cocoa may improve brain blood flow'
p3375
aS'Lawyer for deceased Nazi-era collaborator Papon vows to bury him '
p3376
aS'Cocoa could be antidote to age-related diseases, says new study'
p3377
aS'China denies reports of North Korean apology'
p3378
aS'Hungarian opposition calls for vote after violence escalates'
p3379
aS"AU regrets Sudan's expulsion of UN envoy "
p3380
aS'Bush officials: no big move in Iraq plan '
p3381
aS'Opponent is put on the spot over remarks about Clinton'
p3382
aS'House ethics panel talks to Hastert aide'
p3383
aS'BellSouth says profit rises 30% on cingular earnings'
p3384
aS'Enron boss gets 24-year sentence'
p3385
aS'Sony apologizes for battery recall'
p3386
aS'Google unveils do-it-yourself search engine'
p3387
aS'Firefox 2.0 hits the Web'
p3388
aS'Oracle World opens with Dell unveiling AMD-powered computers'
p3389
aS"Seahawks' QB Hasselbeck out 2-4 weeks"
p3390
aS'Marathon winner released from hospital '
p3391
aS'Punter charged with stabbing asks to live outside state'
p3392
aS'Allmendinger joining Toyota team in NASCAR '
p3393
aS'Trying to assess the damage in Cleveland '
p3394
aS"Bryant's boot may have salvaged Bucs' season"
p3395
aS'This week in auto racing October 27 - October 29'
p3396
aS'Merriman violation stuns ex-teammate'
p3397
aS'Bruce revells in upset'
p3398
aS"Steelers' Roethlisberger has concussion"
p3399
aS'Arthurs upsets Robredo in first round at the St. Petersburg Open'
p3400
aS'Mbeki: 2010 World Cup Planning on Track'
p3401
aS'Clinical Everton show Moyes means business'
p3402
aS'MS Adds Office 2007 to Vista Coupon Program'
p3403
aS'One search does not fit all'
p3404
aS"Apple's dark secret? The 39% claim"
p3405
aS"Bad weather cancels men's downhill"
p3406
aS'Cool millions for YouTube founders'
p3407
aS'London market a shopping, dining haven'
p3408
aS"'Jackass' star marries childhood friend The secrets people reveal"
p3409
aS'Audio Slide Show: A love story lasting 61 years'
p3410
aS'Microsoft to release next generation phone'
p3411
aS"Body Shop's Roddick has Hepatitis C"
p3412
aS'Teen allegedly armed by mom turns self in'
p3413
aS'Oxfam: action needed for Chad'
p3414
aS'Violence continues at disputed holy site'
p3415
aS'Storm leaves behind major travel troubles'
p3416
aS'3 U.S. troops killed hunting weapons cache'
p3417
aS"China's 'Friends' highlights Web freedoms"
p3418
aS"NATO: Afghanistan peace 'by 2009'"
p3419
aS"Alaska's northern lights captivate Japanese"
p3420
aS"Smith can't be buried until hearing"
p3421
aS'Spacewalker sets new U.S. record'
p3422
aS'Fortune: India the Superpower? Think again'
p3423
aS"Kerry blasts 'escalation of misguided war'"
p3424
aS'Anna Nicole claimant: A prince of a guy?'
p3425
aS"'Ronnie' and Eto'o hug and make up"
p3426
aS'Best of the Chicago Auto Show'
p3427
aS"'Grey's,' 'Betty,' 'Scrubs' get boost"
p3428
aS'Massive mud traps dozens of families'
p3429
aS'Edwards blogger quits, becomes journalistic martyr'
p3430
aS'Town packs gym to mourn 10 killed in fire'
p3431
aS'Spain ahead although Nadal is out'
p3432
aS'ECB holds rates at 3.5 percent'
p3433
aS'Iran rejects US claims of supplying weapons in Iraq'
p3434
aS'Jakarta begins disinfection'
p3435
aS"Rowling 'heartbroken,' 'euphoric' at 'Potter's' end"
p3436
aS'Apple revs up Mac attacks on Vista'
p3437
aS'Fear hinders black marrow donation'
p3438
aS'Texan allegedly joined Somalia rebel plot'
p3439
aS'U.S. to allow 7,000 Iraqi refugees'
p3440
aS"Japan: Whaling activists 'terrorists'"
p3441
aS"'Hannibal' bites the big one"
p3442
aS'Women protest Pakistan demolition'
p3443
aS'Wii news for gamers'
p3444
aS'Democrats look beyond symbolic vote on Iraq'
p3445
aS'Portugal to vote on abortion laws'
p3446
aS'Frustration rises as North Korea nuclear talks stall'
p3447
aS'Horse teeth give details of ancient big chill'
p3448
aS'Scam lures victims with free puppy offer'
p3449
aS'Two Koreas to resume talks'
p3450
aS'Mickelson driving force at masters'
p3451
aS'England opt for Bopara over Loye'
p3452
aS"Create own 'Thrillville' for a wild ride"
p3453
aS"Edwards' campaign blogger quits amid Catholic controversy"
p3454
aS"Judge: Preserve Anna Nicole's body"
p3455
aS'Dolphins, sea lions may report for duty soon'
p3456
aS'Nasdaq-LSE battle nears deadline'
p3457
aS'A personal plea for HPV vaccine plan'
p3458
aS'U.S. opens door for Iraqi refugees'
p3459
aS'Swiss plane crashes at Moscow airport'
p3460
aS'Study: napping might help heart'
p3461
aS'MySpace sales surging'
p3462
aS'Telecoms giant slashes 12,500 jobs'
p3463
aS'Air France KLM profit rises'
p3464
aS'Uganda parliament votes to send troops to Somalia'
p3465
aS'King and queen reign at British film awards'
p3466
aS"Murphys rule box office with 'Norbit'"
p3467
aS'Thousands rally in Lebanon'
p3468
aS"Yahoo's mission quest"
p3469
aS'Area should get 3-5 inches of snow today'
p3470
aS'Miss Brazil wins lawsuit competition'
p3471
aS'Snow wreaks havoc in East, Midwest'
p3472
aS'The secrets people reveal'
p3473
aS'Research supports medicinal marijuana'
p3474
aS'All African amputee football games kick off'
p3475
aS'Group: Video shows chopper go down'
p3476
aS'Sale of Chrysler possible'
p3477
aS'Russia condemns terrorist acts on buses outside Beirut'
p3478
aS"Technology may save India's river dolphins"
p3479
aS'Airbus A380 superjumbo takes off'
p3480
aS'Naps are great for chaps'
p3481
aS'Female astronaut sets record'
p3482
aS'Corn stoves popping up in U.S. homes'
p3483
aS'Iraq closes borders with Syria and Iran'
p3484
aS"The troubling ending of 'The Departed'"
p3485
aS'Vietnamese bank plans IPO listing'
p3486
aS"Toyota's Scion parks in Second Life"
p3487
aS'Obama will run in 2008'
p3488
aS"'Cagney and Lacey' finally coming to DVD"
p3489
aS'Merkel: Stop Iran'
p3490
aS'Salt Lake City mall shooter was teenager'
p3491
aS'Female astronaut sets record'
p3492
aS'Oil holds at $58'
p3493
aS'Obama announces presidential bid'
p3494
aS'Tell your boss: Naps are good for you'
p3495
aS"Serbia rejects United Nation's Kosovo plan"
p3496
aS'Amish discuss shootings'
p3497
aS'Jail me, I ate Ivory Coast chocolate'
p3498
aS'Can North Korea be trusted?'
p3499
aS"Tourism lags in Bush's hometown"
p3500
aS"Astronaut's arrest tests NASA's mettle"
p3501
aS'Man gets second chance at space ride'
p3502
aS'Go ahead, take a nap, science says'
p3503
aS"Weekly Nielsen will 'Lost' find its way back?"
p3504
aS'Brith Airways baggage charges cause confusion'
p3505
aS'Indonesian with bird flu dies'
p3506
aS'St. Louis poised for entertainment upswing'
p3507
aS'New York City may ban iPods while crossing street'
p3508
aS'Boy allegedly told to kill by mom gives up'
p3509
aS'Gray wolves off endangered list'
p3510
aS"Vista's hyped security will be tested"
p3511
aS'UK police slammed over terror raid'
p3512
aS'Mogadishu residents flee blasts'
p3513
aS'Bomb kills 18 on military bus in Iran'
p3514
aS"'WarioWare,' Wii make perfect fit"
p3515
aS"U.S. at odds with cleric's aide"
p3516
aS'Desperate Iraqi mother relies on militia for help'
p3517
aS'Full details of the EU report on Iran'
p3518
aS'Singer on Cowell: Glad he was mean'
p3519
aS'Jones faces Europe meetings snub'
p3520
aS'Beckham goal helps Real snatch win'
p3521
aS'Guinea: Plan offices close as country declares emergency'
p3522
aS"Japan's economy grows"
p3523
aS'United Nations peacekeepers raid Haitian slum'
p3524
aS'Work starts on Arctic seed vault'
p3525
aS'Social networking goes mobile'
p3526
aS'Beauticians cut, curl, offer stroke-prevention info'
p3527
aS'Siesta cuts risk of heart disease death, study finds'
p3528
aS'Thomas Cook to merge with MyTravel'
p3529
aS'Nap your way to a successful career'
p3530
aS'Village buried by 100 inches of snow'
p3531
aS'Oprah announces new book club pick'
p3532
aS'The science of love ... and lust'
p3533
aS'Northeaster cancels flights, shuts schools'
p3534
aS'Napping may be good for your heart'
p3535
aS"Ryan O'Neal injured son's girlfriend"
p3536
aS"Chrysler's Valentine's Day massacre"
p3537
aS'Madrid bombings trial begins'
p3538
aS'Fight starts over HPV vaccine'
p3539
aS'Autos drive European gains'
p3540
aS"James Brown's partner can get her things"
p3541
aS'Auto show canceled'
p3542
aS"UK luxury maker Burberry: 'Made in China'?"
p3543
aS'On-the-job naps might cut heart risk'
p3544
aS'No. 1 Florida survives Rupp Arena, streak hits 16'
p3545
aS"J.K. Rowling marks spot of 'Potter's' end"
p3546
aS'Gronholm takes a commanding lead'
p3547
aS'Howard slams Obama on Iraq policy'
p3548
aS'Manila hints at ransom approval'
p3549
aS'Champion Murray too good for Kim'
p3550
aS'G7: Yen skates by, yuan singled out'
p3551
aS"Gunman 'was Srebrenica survivor'"
p3552
aS'Cutting through the clutter to get things done'
p3553
aS"Mother: Lohan is doing 'great' in rehab"
p3554
aS"Who's going to win at the Grammys?"
p3555
aS'Libby defense upsets judge, rests'
p3556
aS'Breakup rings find new homes'
p3557
aS'Gronholm ahead as Solberg crashes'
p3558
aS"'Norbit' a waste of Murphy"
p3559
aS'Rocky start for Bangkok airport'
p3560
aS'12 dead in Lebanese minibus bombings'
p3561
aS'Sex torture claims hit Russia army'
p3562
aS'Mega-marsupials once roamed Australia'
p3563
aS"Rupert Murdoch's secret TiVo"
p3564
aS'UPDATE 1-Plane crashes at Moscow airport, no passengers'
p3565
aS'HPV vaccination stirs heated debate in America'
p3566
aS'Court TV: Accused killer tells jury a love story'
p3567
aS'Whistle-blowing Web site exposed'
p3568
aS'Start late, retire rich'
p3569
aS'Somali PM vows to bring Islamists to justice'
p3570
aS'Swingers more common than most think'
p3571
aS'Anna Nicole Smith fans mourn in cyberspace'
p3572
aS'Antibiotic Ketek more dangerous than thought'
p3573
aS'Time to book your cruise'
p3574
aS"'Blazing Angels' for PS3 fails to soar"
p3575
aS'North Korea aid demand stall talks'
p3576
aS'Cartoon Network head steps down'
p3577
aS'Malaysia aggressively wooing tourists'
p3578
aS"Anna Nicole Smith's Bahamas home seized"
p3579
aS'Andromeda involved in galactic collision'
p3580
aS'Rwanda mulling 3-kid limit for families'
p3581
aS'Wilkinson sets record in tame win'
p3582
aS'Army engineers say dam safe'
p3583
aS'France: Al Qaeda suspects arrested'
p3584
aS'Utah gunman survived Srebrenica'
p3585
aS'Creating a whole album in a month?'
p3586
aS'India to test new nuclear missile'
p3587
aS'G7 to China: Ease exchange rate grip'
p3588
aS'Hatton hands back IBF title again'
p3589
aS'Bernanke: Economy healthy, but...'
p3590
aS'Mickelson, Sutherland share lead'
p3591
aS'Napping is good for your heart, study finds'
p3592
aS'Princess Masako author: No regrets'
p3593
aS'Students use IM-lingo in essays'
p3594
aS'Malaysia launches tourism campaign'
p3595
aS"Study: Africa's Internet gap getting wider"
p3596
aS'Travel chaos as heavy snow hits UK'
p3597
aS"Paula Abdul: 'I have never been drunk'"
p3598
aS'Salmonella outbreak traced to peanut butter'
p3599
aS'Putin: U.S. force fostering nuke ambitions'
p3600
aS'Nuke detectors to ring New York, official says'
p3601
aS'Double bus-bombing kills three in Lebanon'
p3602
aS'Davydenko out as seeds scattered'
p3603
aS"Obama: I'm running for president"
p3604
aS'Paterson boots Scotland to victory'
p3605
aS'African-Americans are organ donors these days, but what about bone marrow?'
p3606
aS'Study: On-the-job naps might help heart'
p3607
aS'Guinea capital largely calm under curfew, marital law'
p3608
aS'Bosses sleeping on idea of letting workers take naps'
p3609
aS"Teacher's porn conviction sparks tech debate"
p3610
aS'Singapore pampers its waterfront promenade'
p3611
aS'Rwanda mulls three-child limit'
p3612
aS'Samsung settles price-fixing lawsuit'
p3613
aS'Radical cleric al-Sadr in Iran, U.S. insists'
p3614
aS'Reports: Harvard set to name first female president'
p3615
aS'Iraq unveils new security plans'
p3616
aS'University offers support to New Orleans school'
p3617
aS'Storm causes slick, icy roads'
p3618
aS'South Korea fire kills 10 foreigners'
p3619
aS'Prehistoric lovers found locked in eternal embrace'
p3620
aS'Charts: Is your city lean or lethargic?'
p3621
aS'Peru leader questioned in massacre probe'
p3622
aS'U.S. commander: Iraq not hopeless'
p3623
aS'Australian PM stands by Obama attack'
p3624
aS'Mardi Gras rebound in the offing for New Orleans?'
p3625
aS'Siestas may cut heart disease risk'
p3626
aS'Oregon snorkeler mistaken for rodent, shot in face'
p3627
aS'Petraeus takes command in Iraq'
p3628
aS'6 dead after Utah Mall shooting rampage'
p3629
aS"Sharks kill four people in 'dull' year"
p3630
aS'Record-shattering day on Wall St.'
p3631
aS'Comedian says government silences critics'
p3632
aS'Rockers big winners at Brit Awards'
p3633
aS'Samba school leader killed before Rio carnival'
p3634
aS"Taiwan's 'Mr. Clean' indicted, steps down"
p3635
aS'Woman fights to keep drunken driver in jail'
p3636
aS'Al Qaeda group calls for attacks on U.S. oil'
p3637
aS'Cousin: Gunman was Srebrenica survivor'
p3638
aS'Turkmenistan votes for president'
p3639
aS'Here is some advice to take to heart...'
p3640
aS"10 don't-miss tax breaks"
p3641
aS'Police break up Kosovo protests'
p3642
aS'Messi makes Barcelona squad return'
p3643
aS'Jump reported in accidental drug-overdose deaths'
p3644
aS'Catania punished for fan violence'
p3645
aS'Isinbayeva sets 20th world record'
p3646
aS'Lawmakers blast FDA drug safety oversight'
p3647
aS'Regular naps make hearts healthy'
p3648
aS'Ice stops trolleys cold'
p3649
aS"U.S. gunman 'was Srebrenica survivor'"
p3650
aS'Outdated baby food found on shelves'
p3651
aS'Tow truck drivers accused of stealing cars'
p3652
aS"Bush: It's time for Congress to back energy plan"
p3653
aS'UK soldiers cleared of Iraq abuse'
p3654
aS'FDA revises label warnings on the antibiotic Ketek'
p3655
aS'Toshiba Portege R400'
p3656
aS'South Africa mourns Adelaide Tambo'
p3657
aS'Evacuees can return home after plant blast'
p3658
aS"Anna Nicole Smith's body lies in legal limbo"
p3659
aS'Former teacher poses for Playboy'
p3660
aS'France rejects Rwandan investigators'
p3661
aS'A nap a day may keep the heart doctor away'
p3662
aS'Higley, Gonzalez lead in Malaysia'
p3663
aS'Grammys ready to name winners'
p3664
aS'Pound will not drop Armstrong case'
p3665
aS'Reunited Police to start world tour in May'
p3666
aS'Turkmen acting leader sworn in as new president'
p3667
aS'Allen and Okur get All-Star call'
p3668
aS'Svindal claims are golden double'
p3669
aS'Trolley Square shooting leaves 6 dead, including gunman'
p3670
aS'Bridge blast stops I-95 traffic'
p3671
aS'Mother, daughter stabbed near school'
p3672
aS'Excerpt: Politicians and the press'
p3673
aS"North Korea gets 'money and respect'"
p3674
aS"Beyonce in a bikini as SI's swimsuit cover model"
p3675
aS'Loving with all your ... brain'
p3676
aS"Shoplifters' choice: Police or T-shirt of shame"
p3677
aS"Cuban official: Web a 'wild colt'"
p3678
aS"Slow 'Music and Lyrics'"
p3679
aS'Mexican navy helps in hunt for U.S. engineer'
p3680
aS'Smith baby may not be pot of gold'
p3681
aS"Latest updates on world's top stories"
p3682
aS'Beating leaves teen in coma'
p3683
aS'Tiempo Libre has Grammy dreams'
p3684
aS'GPS sneakers locate with press of a button'
p3685
aS'Embattled Edwards blogger quits campaign'
p3686
aS'Britons deported from Somalia held under Terrorism Act'
p3687
aS"Updates on world's top stories"
p3688
aS'Breast cancer drug promises hope'
p3689
aS'Ancient coin shows Cleopatra was no beauty'
p3690
aS'YouTube yields surprising payback'
p3691
aS'Up to 22 inches of snow in forecast'
p3692
aS'Werder make 10-man Ajax pay price'
p3693
aS"EU condemns 'illegal' CIA flights"
p3694
aS'Report links humans to global warming'
p3695
aS'UN nuclear watchdog slashes Iran aid'
p3696
aS'Survey: Tech a tool in teen dating abuse'
p3697
aS'The breast cancer breakthrough saving 1000 women a year'
p3698
aS'Tourist spot resists gravity, but not progress'
p3699
aS"The NFL's 20 biggest potential free agents"
p3700
aS'World tourism sets record in 2006'
p3701
aS'BA to charge $470 for an extra bag'
p3702
aS"Kuerten returns to winners' circle"
p3703
aS"World's oldest newspaper now exists only online"
p3704
aS'Japanese whaler afire in Antarctic'
p3705
aS'EU document: Iranian bomb unstoppable'
p3706
aS"U.S. urged to lead on 'green' actions"
p3707
aS"See if your city is one of the United States' top 10 fittest or fattest"
p3708
aS'Lee in pre-World Cup injury scare'
p3709
aS'New cancer drug to save a thousand lives a year'
p3710
aS'Ex-teacher guilty in nude-pictures scheme'
p3711
aS'Fire extinguisher part of Tennessee execution kit'
p3712
aS'Founder returns to Dell helm'
p3713
aS'Charles Gibson takes over first place'
p3714
aS'Ex-Border Patrol agent beaten in prison'
p3715
aS"'Made in China' irks some Burberry shoppers"
p3716
aS"Stonehenge workers' village found"
p3717
aS'Who is Prince Frederic von Anhalt?'
p3718
aS"Latest food-fad -- 'space potatoes'"
p3719
aS'Ethiopia readies for millennium all its own'
p3720
aS'Good news for slackers: Naps may cut risk for heart problems'
p3721
aS'Snowbirds shortening their Florida stays'
p3722
aS'Win a (concert) date with the Police'
p3723
aS'Snow begins, heavy accumulations expected'
p3724
aS'Jet flips in snowstorm, none dead'
p3725
aS"Frantic 911 call in Ryan O'Neal case"
p3726
aS"Durant's success trumps the Gators"
p3727
aS"Scientist snoops in astronauts' journals"
p3728
aS'YouTube founders split $650M payout'
p3729
aS'African nation hopes Whoopi can help'
p3730
aS'United hang on to six-point lead'
p3731
aS"Lawyer seizes Smith's Bahamas home"
p3732
aS"Was Prince's super show too revealing?"
p3733
aS'Clijsters looks for a long goodbye'
p3734
aS"Snow's too deep even for snowmobiles"
p3735
aS'Study: Female seals picky about mates'
p3736
aS'ROUNDUP: Protests erupt despite "state of siege" In Guinea'
p3737
aS'Study: More kids exposed to online porn'
p3738
aS'Beyonce new SI bikini cover girl'
p3739
aS'Marijuana helps ease HIV nerve pain, study says'
p3740
aS'Serena misses Bangalore tournament'
p3741
aS'Dryer blamed for fire killing 39 cats, dogs'
p3742
aS'Roddick, Murray score in San Jose'
p3743
aS'Apple trademark dispute settled'
p3744
aS'U.S. online love brokers eye China'
p3745
aS'U.S. diverts troops to fight Taliban'
p3746
aS"'House of Cards' actor Ian Richardson dead"
p3747
aS'Taliban leader killed in airstrike'
p3748
aS'Escape to Prague without the summer hordes'
p3749
aS'Kathmandu: First snow in 63 years'
p3750
aS'Nasdaq fails in bid for LSE'
p3751
aS'Ex-pastor gets death sentence'
p3752
aS'Baby born on turnpike after dad misses exit'
p3753
aS"Study links chimps and 'hammers'"
p3754
aS'UN-Google Earth map climate change'
p3755
asS'val_ind'
p3756
(lp3757
I54
aI46
aI86
aI246
aI106
aI87
aI110
aI168
aI169
aI103
aI248
aI69
aI165
aI159
aI191
aI67
aI216
aI223
aI126
aI68
aI121
aI56
aI119
aI184
aI74
aI85
aI101
aI53
aI198
aI41
aI235
aI11
aI35
aI214
aI177
aI25
aI150
aI98
aI89
aI36
aI94
aI63
aI28
aI24
aI124
aI192
aI107
aI116
aI193
aI43
asS'test_ind'
p3758
(lp3759
I250
aI251
aI252
aI253
aI254
aI255
aI256
aI257
aI258
aI259
aI260
aI261
aI262
aI263
aI264
aI265
aI266
aI267
aI268
aI269
aI270
aI271
aI272
aI273
aI274
aI275
aI276
aI277
aI278
aI279
aI280
aI281
aI282
aI283
aI284
aI285
aI286
aI287
aI288
aI289
aI290
aI291
aI292
aI293
aI294
aI295
aI296
aI297
aI298
aI299
aI300
aI301
aI302
aI303
aI304
aI305
aI306
aI307
aI308
aI309
aI310
aI311
aI312
aI313
aI314
aI315
aI316
aI317
aI318
aI319
aI320
aI321
aI322
aI323
aI324
aI325
aI326
aI327
aI328
aI329
aI330
aI331
aI332
aI333
aI334
aI335
aI336
aI337
aI338
aI339
aI340
aI341
aI342
aI343
aI344
aI345
aI346
aI347
aI348
aI349
aI350
aI351
aI352
aI353
aI354
aI355
aI356
aI357
aI358
aI359
aI360
aI361
aI362
aI363
aI364
aI365
aI366
aI367
aI368
aI369
aI370
aI371
aI372
aI373
aI374
aI375
aI376
aI377
aI378
aI379
aI380
aI381
aI382
aI383
aI384
aI385
aI386
aI387
aI388
aI389
aI390
aI391
aI392
aI393
aI394
aI395
aI396
aI397
aI398
aI399
aI400
aI401
aI402
aI403
aI404
aI405
aI406
aI407
aI408
aI409
aI410
aI411
aI412
aI413
aI414
aI415
aI416
aI417
aI418
aI419
aI420
aI421
aI422
aI423
aI424
aI425
aI426
aI427
aI428
aI429
aI430
aI431
aI432
aI433
aI434
aI435
aI436
aI437
aI438
aI439
aI440
aI441
aI442
aI443
aI444
aI445
aI446
aI447
aI448
aI449
aI450
aI451
aI452
aI453
aI454
aI455
aI456
aI457
aI458
aI459
aI460
aI461
aI462
aI463
aI464
aI465
aI466
aI467
aI468
aI469
aI470
aI471
aI472
aI473
aI474
aI475
aI476
aI477
aI478
aI479
aI480
aI481
aI482
aI483
aI484
aI485
aI486
aI487
aI488
aI489
aI490
aI491
aI492
aI493
aI494
aI495
aI496
aI497
aI498
aI499
aI500
aI501
aI502
aI503
aI504
aI505
aI506
aI507
aI508
aI509
aI510
aI511
aI512
aI513
aI514
aI515
aI516
aI517
aI518
aI519
aI520
aI521
aI522
aI523
aI524
aI525
aI526
aI527
aI528
aI529
aI530
aI531
aI532
aI533
aI534
aI535
aI536
aI537
aI538
aI539
aI540
aI541
aI542
aI543
aI544
aI545
aI546
aI547
aI548
aI549
aI550
aI551
aI552
aI553
aI554
aI555
aI556
aI557
aI558
aI559
aI560
aI561
aI562
aI563
aI564
aI565
aI566
aI567
aI568
aI569
aI570
aI571
aI572
aI573
aI574
aI575
aI576
aI577
aI578
aI579
aI580
aI581
aI582
aI583
aI584
aI585
aI586
aI587
aI588
aI589
aI590
aI591
aI592
aI593
aI594
aI595
aI596
aI597
aI598
aI599
aI600
aI601
aI602
aI603
aI604
aI605
aI606
aI607
aI608
aI609
aI610
aI611
aI612
aI613
aI614
aI615
aI616
aI617
aI618
aI619
aI620
aI621
aI622
aI623
aI624
aI625
aI626
aI627
aI628
aI629
aI630
aI631
aI632
aI633
aI634
aI635
aI636
aI637
aI638
aI639
aI640
aI641
aI642
aI643
aI644
aI645
aI646
aI647
aI648
aI649
aI650
aI651
aI652
aI653
aI654
aI655
aI656
aI657
aI658
aI659
aI660
aI661
aI662
aI663
aI664
aI665
aI666
aI667
aI668
aI669
aI670
aI671
aI672
aI673
aI674
aI675
aI676
aI677
aI678
aI679
aI680
aI681
aI682
aI683
aI684
aI685
aI686
aI687
aI688
aI689
aI690
aI691
aI692
aI693
aI694
aI695
aI696
aI697
aI698
aI699
aI700
aI701
aI702
aI703
aI704
aI705
aI706
aI707
aI708
aI709
aI710
aI711
aI712
aI713
aI714
aI715
aI716
aI717
aI718
aI719
aI720
aI721
aI722
aI723
aI724
aI725
aI726
aI727
aI728
aI729
aI730
aI731
aI732
aI733
aI734
aI735
aI736
aI737
aI738
aI739
aI740
aI741
aI742
aI743
aI744
aI745
aI746
aI747
aI748
aI749
aI750
aI751
aI752
aI753
aI754
aI755
aI756
aI757
aI758
aI759
aI760
aI761
aI762
aI763
aI764
aI765
aI766
aI767
aI768
aI769
aI770
aI771
aI772
aI773
aI774
aI775
aI776
aI777
aI778
aI779
aI780
aI781
aI782
aI783
aI784
aI785
aI786
aI787
aI788
aI789
aI790
aI791
aI792
aI793
aI794
aI795
aI796
aI797
aI798
aI799
aI800
aI801
aI802
aI803
aI804
aI805
aI806
aI807
aI808
aI809
aI810
aI811
aI812
aI813
aI814
aI815
aI816
aI817
aI818
aI819
aI820
aI821
aI822
aI823
aI824
aI825
aI826
aI827
aI828
aI829
aI830
aI831
aI832
aI833
aI834
aI835
aI836
aI837
aI838
aI839
aI840
aI841
aI842
aI843
aI844
aI845
aI846
aI847
aI848
aI849
aI850
aI851
aI852
aI853
aI854
aI855
aI856
aI857
aI858
aI859
aI860
aI861
aI862
aI863
aI864
aI865
aI866
aI867
aI868
aI869
aI870
aI871
aI872
aI873
aI874
aI875
aI876
aI877
aI878
aI879
aI880
aI881
aI882
aI883
aI884
aI885
aI886
aI887
aI888
aI889
aI890
aI891
aI892
aI893
aI894
aI895
aI896
aI897
aI898
aI899
aI900
aI901
aI902
aI903
aI904
aI905
aI906
aI907
aI908
aI909
aI910
aI911
aI912
aI913
aI914
aI915
aI916
aI917
aI918
aI919
aI920
aI921
aI922
aI923
aI924
aI925
aI926
aI927
aI928
aI929
aI930
aI931
aI932
aI933
aI934
aI935
aI936
aI937
aI938
aI939
aI940
aI941
aI942
aI943
aI944
aI945
aI946
aI947
aI948
aI949
aI950
aI951
aI952
aI953
aI954
aI955
aI956
aI957
aI958
aI959
aI960
aI961
aI962
aI963
aI964
aI965
aI966
aI967
aI968
aI969
aI970
aI971
aI972
aI973
aI974
aI975
aI976
aI977
aI978
aI979
aI980
aI981
aI982
aI983
aI984
aI985
aI986
aI987
aI988
aI989
aI990
aI991
aI992
aI993
aI994
aI995
aI996
aI997
aI998
aI999
aI1000
aI1001
aI1002
aI1003
aI1004
aI1005
aI1006
aI1007
aI1008
aI1009
aI1010
aI1011
aI1012
aI1013
aI1014
aI1015
aI1016
aI1017
aI1018
aI1019
aI1020
aI1021
aI1022
aI1023
aI1024
aI1025
aI1026
aI1027
aI1028
aI1029
aI1030
aI1031
aI1032
aI1033
aI1034
aI1035
aI1036
aI1037
aI1038
aI1039
aI1040
aI1041
aI1042
aI1043
aI1044
aI1045
aI1046
aI1047
aI1048
aI1049
aI1050
aI1051
aI1052
aI1053
aI1054
aI1055
aI1056
aI1057
aI1058
aI1059
aI1060
aI1061
aI1062
aI1063
aI1064
aI1065
aI1066
aI1067
aI1068
aI1069
aI1070
aI1071
aI1072
aI1073
aI1074
aI1075
aI1076
aI1077
aI1078
aI1079
aI1080
aI1081
aI1082
aI1083
aI1084
aI1085
aI1086
aI1087
aI1088
aI1089
aI1090
aI1091
aI1092
aI1093
aI1094
aI1095
aI1096
aI1097
aI1098
aI1099
aI1100
aI1101
aI1102
aI1103
aI1104
aI1105
aI1106
aI1107
aI1108
aI1109
aI1110
aI1111
aI1112
aI1113
aI1114
aI1115
aI1116
aI1117
aI1118
aI1119
aI1120
aI1121
aI1122
aI1123
aI1124
aI1125
aI1126
aI1127
aI1128
aI1129
aI1130
aI1131
aI1132
aI1133
aI1134
aI1135
aI1136
aI1137
aI1138
aI1139
aI1140
aI1141
aI1142
aI1143
aI1144
aI1145
aI1146
aI1147
aI1148
aI1149
aI1150
aI1151
aI1152
aI1153
aI1154
aI1155
aI1156
aI1157
aI1158
aI1159
aI1160
aI1161
aI1162
aI1163
aI1164
aI1165
aI1166
aI1167
aI1168
aI1169
aI1170
aI1171
aI1172
aI1173
aI1174
aI1175
aI1176
aI1177
aI1178
aI1179
aI1180
aI1181
aI1182
aI1183
aI1184
aI1185
aI1186
aI1187
aI1188
aI1189
aI1190
aI1191
aI1192
aI1193
aI1194
aI1195
aI1196
aI1197
aI1198
aI1199
aI1200
aI1201
aI1202
aI1203
aI1204
aI1205
aI1206
aI1207
aI1208
aI1209
aI1210
aI1211
aI1212
aI1213
aI1214
aI1215
aI1216
aI1217
aI1218
aI1219
aI1220
aI1221
aI1222
aI1223
aI1224
aI1225
aI1226
aI1227
aI1228
aI1229
aI1230
aI1231
aI1232
aI1233
aI1234
aI1235
aI1236
aI1237
aI1238
aI1239
aI1240
aI1241
aI1242
aI1243
aI1244
aI1245
aI1246
aI1247
aI1248
aI1249
asS'train_ind'
p3760
(lp3761
I42
aI30
aI213
aI154
aI48
aI149
aI96
aI55
aI97
aI99
aI164
aI15
aI117
aI115
aI135
aI75
aI32
aI231
aI14
aI156
aI220
aI52
aI230
aI234
aI139
aI188
aI21
aI39
aI113
aI146
aI123
aI120
aI212
aI19
aI29
aI209
aI160
aI58
aI80
aI13
aI1
aI125
aI185
aI2
aI228
aI44
aI227
aI59
aI100
aI127
aI183
aI243
aI140
aI62
aI112
aI51
aI130
aI34
aI5
aI218
aI166
aI240
aI244
aI37
aI142
aI180
aI181
aI233
aI190
aI211
aI178
aI157
aI31
aI102
aI171
aI70
aI145
aI128
aI4
aI66
aI17
aI79
aI186
aI10
aI95
aI33
aI141
aI204
aI40
aI163
aI221
aI7
aI172
aI143
aI12
aI225
aI3
aI205
aI144
aI249
aI109
aI206
aI153
aI138
aI201
aI83
aI158
aI187
aI199
aI133
aI16
aI64
aI108
aI38
aI118
aI197
aI208
aI155
aI175
aI239
aI73
aI49
aI0
aI173
aI161
aI45
aI176
aI202
aI50
aI77
aI247
aI237
aI200
aI132
aI207
aI47
aI136
aI229
aI88
aI131
aI78
aI210
aI170
aI162
aI224
aI26
aI18
aI20
aI174
aI226
aI222
aI236
aI76
aI196
aI137
aI219
aI122
aI71
aI61
aI238
aI8
aI148
aI195
aI57
aI179
aI91
aI111
aI81
aI147
aI215
aI60
aI65
aI203
aI104
aI105
aI194
aI241
aI22
aI6
aI93
aI27
aI129
aI152
aI23
aI242
aI182
aI134
aI9
aI72
aI84
aI82
aI114
aI90
aI245
aI217
aI167
aI232
aI92
aI189
aI151
as.